(dp1
S'output'
p2
S"<type 'exceptions.ValueError'> need more than 1 value to unpack"
p3
sS'layer'
p4
S'/home/brat/web2py/applications/Spencers/views/default/view_customers.html'
p5
sS'code'
p6
S'response.write(\'<!--[if HTML5]><![endif]-->\\n<!DOCTYPE html>\\n<!-- paulirish.com/2008/conditional-stylesheets-vs-css-hacks-answer-neither/ -->\\n<!--[if lt IE 7]><html class="ie ie6 ie-lte9 ie-lte8 ie-lte7 no-js" lang="\', escape=False)\nresponse.write(T.accepted_language or \'en\')\nresponse.write(\'"> <![endif]-->\\n<!--[if IE 7]><html class="ie ie7 ie-lte9 ie-lte8 ie-lte7 no-js" lang="\', escape=False)\nresponse.write(T.accepted_language or \'en\')\nresponse.write(\'"> <![endif]-->\\n<!--[if IE 8]><html class="ie ie8 ie-lte9 ie-lte8 no-js" lang="\', escape=False)\nresponse.write(T.accepted_language or \'en\')\nresponse.write(\'"> <![endif]-->\\n<!--[if IE 9]><html class="ie9 ie-lte9 no-js" lang="\', escape=False)\nresponse.write(T.accepted_language or \'en\')\nresponse.write(\'"> <![endif]-->\\n<!--[if (gt IE 9)|!(IE)]><!--> <html class="no-js" lang="\', escape=False)\nresponse.write(T.accepted_language or \'en\')\nresponse.write(\'"> <!--<![endif]-->\\n<head>\\n<title>\', escape=False)\nresponse.write(response.title or request.application)\nresponse.write(\'</title>\\n  <!--[if !HTML5]>\\n      <meta http-equiv="X-UA-Compatible" content="IE=edge\', escape=False)\nresponse.write(not request.is_local and \',chrome=1\' or \'\')\nresponse.write(\'">\\n  <![endif]-->\\n  <!-- www.phpied.com/conditional-comments-block-downloads/ -->\\n  <!-- Always force latest IE rendering engine\\n       (even in intranet) & Chrome Frame\\n       Remove this if you use the .htaccess -->\\n\\t   \\n  <meta charset="utf-8" />\\n\\n  <!-- http://dev.w3.org/html5/markup/meta.name.html -->\\n  <meta name="application-name" content="\', escape=False)\nresponse.write(request.application)\nresponse.write(\'" />\\n  \\n  <!-- Speaking of Google, don\\\'t forget to set your site up:\\n       http://google.com/webmasters -->\\n  <meta name="google-site-verification" content="" />\\n\\n  <!--  Mobile Viewport Fix\\n        j.mp/mobileviewport & davidbcalhoun.com/2010/viewport-metatag\\n        device-width: Occupy full width of the screen in its current orientation\\n        initial-scale = 1.0 retains dimensions instead of zooming out if page height > device height\\n        user-scalable = yes allows the user to zoom in -->\\n  <meta name="viewport" content="width=device-width, initial-scale=1.0" />\\n\\n  <link rel="shortcut icon" href="\', escape=False)\nresponse.write(URL(\'static\',\'images/favicon.ico\'))\nresponse.write(\'" type="image/x-icon">\\n  <link rel="apple-touch-icon" href="\', escape=False)\nresponse.write(URL(\'static\',\'images/favicon.png\'))\nresponse.write(\'">\\n\\n  <!-- All JavaScript at the bottom, except for Modernizr which enables\\n       HTML5 elements & feature detects -->\\n  <script src="\', escape=False)\nresponse.write(URL(\'static\',\'js/modernizr.custom.js\'))\nresponse.write(\'"></script>\\n   \\n  <!-- include stylesheets -->\\n  \', escape=False)\nresponse.files.insert(0,URL(\'static\',\'css/web2py.css\'))\nresponse.files.insert(1,URL(\'static\',\'css/bootstrap.min.css\'))\nresponse.files.insert(2,URL(\'static\',\'css/bootstrap-responsive.min.css\'))\nresponse.files.insert(3,URL(\'static\',\'css/web2py_bootstrap.css\'))\nresponse.write(\'\\n\\n  \', escape=False)\nresponse.write(\'<script type="text/javascript"><!--\\n    // These variables are used by the web2py_ajax_init function in web2py_ajax.js (which is loaded below).\\n    var w2p_ajax_confirm_message = "\', escape=False)\nresponse.write(T(\'Are you sure you want to delete this object?\'))\nresponse.write(\'";\\n    var w2p_ajax_disable_with_message = "\', escape=False)\nresponse.write(T(\'Working...\'))\nresponse.write(\'";\\n    var w2p_ajax_date_format = "\', escape=False)\nresponse.write(T(\'%Y-%m-%d\'))\nresponse.write(\'";\\n    var w2p_ajax_datetime_format = "\', escape=False)\nresponse.write(T(\'%Y-%m-%d %H:%M:%S\'))\nresponse.write(\'";\\n    var ajax_error_500 = \\\'\', escape=False)\nresponse.write(XML(T(\'An error occured, please %s the page\') % A(T(\'reload\'), _href=URL(args=request.args, vars=request.get_vars))))\nresponse.write("\'\\n    //--></script>\\n", escape=False)\nresponse.files.insert(0,URL(\'static\',\'js/jquery.js\'))\nresponse.files.insert(1,URL(\'static\',\'css/calendar.css\'))\nresponse.files.insert(2,URL(\'static\',\'js/calendar.js\'))\nresponse.files.insert(3,URL(\'static\',\'js/web2py.js\'))\nresponse.include_meta()\nresponse.include_files()\nresponse.write(\'\\n\', escape=False)\nresponse.write(\'\\n\\n  \', escape=False)\n# using sidebars need to know what sidebar you want to use\nleft_sidebar_enabled = globals().get(\'left_sidebar_enabled\',False)\nright_sidebar_enabled = globals().get(\'right_sidebar_enabled\',False)\nmiddle_columns = {0:\'span12\',1:\'span9\',2:\'span6\'}[\n(left_sidebar_enabled and 1 or 0)+(right_sidebar_enabled and 1 or 0)]\nresponse.write(\'\\n\\n  <!-- uncomment here to load jquery-ui\\n       <link rel="stylesheet" href="http://ajax.googleapis.com/ajax/libs/jqueryui/1.10.3/themes/base/jquery-ui.css" type="text/css" media="all" />\\n       <script src="http://ajax.googleapis.com/ajax/libs/jqueryui/1.10.3/jquery-ui.min.js" type="text/javascript"></script>\\n       uncomment to load jquery-ui //-->\\n  <noscript><link href="\', escape=False)\nresponse.write(URL(\'static\', \'css/web2py_bootstrap_nojs.css\'))\nresponse.write(\'" rel="stylesheet" type="text/css" /></noscript>\\n  \', escape=False)\nresponse.write(\'\\n</head>\\n\\n<body>\\n  <!-- Navbar ================================================== -->\\n  <div class="navbar navbar-inverse">\\n    <div class="flash">\', escape=False)\nresponse.write(response.flash or \'\')\nresponse.write(\'</div>\\n    <div class="navbar-inner">\\n      <div class="container">\\n        \', escape=False)\nis_mobile=request.user_agent().is_mobile\nresponse.write(\'\\n        <!-- the next tag is necessary for bootstrap menus, do not remove -->\\n        <button type="button" class="btn btn-navbar" data-toggle="collapse" data-target=".nav-collapse" style="\', escape=False)\nresponse.write(\'display:none;\' if not is_mobile else \'\')\nresponse.write(\'">\\n          <span class="icon-bar"></span>\\n          <span class="icon-bar"></span>\\n          <span class="icon-bar"></span>\\n        </button>\\n        \', escape=False)\nresponse.write(response.logo or \'\')\nresponse.write(\'\\n        <ul id="navbar" class="nav pull-right">\', escape=False)\nresponse.write(\'auth\' in globals() and auth.navbar(mode="dropdown") or \'\')\nresponse.write(\'</ul>\\n        <div class="\', escape=False)\nresponse.write(\'nav-collapse\' if is_mobile else \'nav\')\nresponse.write(\'">\\n          \', escape=False)\nif response.menu:\n    response.write(\'\\n          \', escape=False)\n    response.write(MENU(response.menu, _class=\'mobile-menu nav\' if is_mobile else \'nav\',mobile=is_mobile,li_class=\'dropdown\',ul_class=\'dropdown-menu\'))\n    response.write(\'\\n          \', escape=False)\n    pass\nresponse.write(\'\\n        </div><!--/.nav-collapse -->\\n      </div>\\n    </div>\\n  </div><!--/top navbar -->\\n\\n  <div class="container">\\n\\t  \\n    <!-- Masthead ================================================== -->\\n    <header class="mastheader row" id="header">\\n\\t\\t<table>\\n      \', escape=False)\nif response.title:\n    response.write(\'\\n      <tr><td>\\n        <div class="span30">\\n            <div class="page-header">\\n                <h1>\\n                    \\n                    \', escape=False)\n    if response.title=="Spencers":\n        response.write(\'\\n                    <img src="\', escape=False)\n        response.write(URL(\'static\', \'images/logo.jpg\'))\n        response.write(\'"/>\\n                    \', escape=False)\n    else:\n        response.write(\'\\n                    \', escape=False)\n        response.write(response.title)\n        response.write(\'\\n                    \', escape=False)\n        pass\n    response.write(\'\\n                    <small>\', escape=False)\n    response.write(response.subtitle or \'\')\n    response.write(\'</small>\\n                </h1>\\n            </div><td>\\n            <div class="span20" style="float:right;">   \\n                    \\n                    \', escape=False)\n    if response.title=="Spencers":\n        response.write(\'\\n                    <img src="\', escape=False)\n        response.write(URL(\'static\', \'images/white.png\'))\n        response.write(\'"/>\\n                    \', escape=False)\n        pass\n    response.write(\'                   \\n            </div>\\n            </td>\\n\\t\', escape=False)\n    pass\nresponse.write(\'\\n\\t</td>\\n\\t<td><p>\\n\\t\\t\', escape=False)\nresponse.write("                           ")\nresponse.write(\'\\n\\t\\t</td>\\n</p>\\n\\t<td>\\n\\t\\t<div class="span20" style="float:right;">   \\n                    \\n                    \', escape=False)\nif response.title=="Spencers":\n    response.write(\'\\n                    <img src="\', escape=False)\n    response.write(URL(\'static\', \'images/logo3.jpg\'))\n    response.write(\'"/>\\n                    \', escape=False)\n    pass\nresponse.write(\'    \\n                    </td></tr>               \\n            </div>\\n\\t\\n\\t</table>\\n    </header>\\n\\n    <section id="main" class="main row">\\n        \', escape=False)\nif left_sidebar_enabled:\n    response.write(\'\\n        <div class="span3 left-sidebar">\\n            \', escape=False)\n    response.write(\'\\n            <h3>Left Sidebar</h3>\\n            <p></p>\\n            \', escape=False)\n    response.write(\'\\n        </div>\\n        \', escape=False)\n    pass\nresponse.write(\'\\n\\n        <div class="\', escape=False)\nresponse.write(middle_columns)\nresponse.write(\'">\\n            \', escape=False)\nresponse.write(\'\\n            \', escape=False)\nresponse.write(\'\\n<h1>Find Customer</h1>\\n<b>\', escape=False)\nresponse.write(message)\nresponse.write(\'\\n</b>\\n\', escape=False)\nresponse.write(form2)\nresponse.write(\'\\n<br>\\n<br>\\n    <b>Or Select From the List</b>\\n\', escape=False)\nresponse.write(form1)\nresponse.write(\'\\n\', escape=False)\nresponse.write(\'\\n            \', escape=False)\nresponse.write(\'\\n        </div>\\n\\n        \', escape=False)\nif right_sidebar_enabled:\n    response.write(\'\\n        <div class="span3">\\n            \', escape=False)\n    response.write(\'\\n            <h3>Right Sidebar</h3>\\n            <p></p>\\n            \', escape=False)\n    response.write(\'\\n        </div>\\n        \', escape=False)\n    pass\nresponse.write(\'\\n    </section><!--/main-->\\n\\n    <!-- Footer ================================================== -->\\n    <div class="row">\\n        <footer class="footer span12" id="footer">\\n            <div class="footer-content">\\n                \', escape=False)\nresponse.write(\' <!-- this is default footer -->\\n                <div class="copyright pull-left">\', escape=False)\nresponse.write(T(\'Copyright\'))\nresponse.write(\' &#169; \', escape=False)\nresponse.write(request.now.year)\nresponse.write(\'</div>\\n                <div id="poweredBy" class="pull-right">\\n                    \', escape=False)\nresponse.write(T(\'Powered by\'))\nresponse.write(\'\\n                    <a href="http://www.web2py.com/">web2py</a>\\n                </div>\\n                \', escape=False)\nresponse.write(\'\\n            </div>\\n        </footer>\\n    </div>\\n\\n  </div> <!-- /container -->\\n\\n  <!-- The javascript =============================================\\n       (Placed at the end of the document so the pages load faster) -->\\n  <script src="\', escape=False)\nresponse.write(URL(\'static\',\'js/bootstrap.min.js\'))\nresponse.write(\'"></script>\\n  <script src="\', escape=False)\nresponse.write(URL(\'static\',\'js/web2py_bootstrap.js\'))\nresponse.write(\'"></script>\\n  <!--[if lt IE 7 ]>\\n      <script src="\', escape=False)\nresponse.write(URL(\'static\',\'js/dd_belatedpng.js\'))\nresponse.write(\'"></script>\\n      <script> DD_belatedPNG.fix(\\\'img, .png_bg\\\'); //fix any <img> or .png_bg background-images </script>\\n      <![endif]-->\\n  \\n  \', escape=False)\nif response.google_analytics_id:\n    response.write(\'\\n  <script src="\', escape=False)\n    response.write(URL(\'static\',\'js/analytics.min.js\'))\n    response.write(\'"></script>\\n  <script type="text/javascript">\\n  analytics.initialize({\\n    \\\'Google Analytics\\\':{trackingId:\\\'\', escape=False)\n    response.write(response.google_analytics_id)\n    response.write("\'} \\n  });</script>\\n  ", escape=False)\n    pass\nresponse.write(\'\\n  <script src="\', escape=False)\nresponse.write(URL(\'static\',\'js/share.js\',vars=dict(static=URL(\'static\',\'images\'))))\nresponse.write(\'"></script>\\n</body>\\n</html>\\n\', escape=False)'
p7
sS'snapshot'
p8
(dp9
S'exception'
p10
(dp11
S'__hash__'
p12
S"<method-wrapper '__hash__' of exceptions.ValueError object>"
p13
sS'__setattr__'
p14
S"<method-wrapper '__setattr__' of exceptions.ValueError object>"
p15
sS'__reduce_ex__'
p16
S'<built-in method __reduce_ex__ of exceptions.ValueError object>'
p17
sS'__getslice__'
p18
S"<method-wrapper '__getslice__' of exceptions.ValueError object>"
p19
sS'__getitem__'
p20
S"<method-wrapper '__getitem__' of exceptions.ValueError object>"
p21
sS'__setstate__'
p22
S'<built-in method __setstate__ of exceptions.ValueError object>'
p23
sS'__reduce__'
p24
S'<built-in method __reduce__ of exceptions.ValueError object>'
p25
sS'__str__'
p26
S"<method-wrapper '__str__' of exceptions.ValueError object>"
p27
sS'__format__'
p28
S'<built-in method __format__ of exceptions.ValueError object>'
p29
sS'__getattribute__'
p30
S"<method-wrapper '__getattribute__' of exceptions.ValueError object>"
p31
sS'__class__'
p32
S"<type 'exceptions.ValueError'>"
p33
sS'__unicode__'
p34
S'<built-in method __unicode__ of exceptions.ValueError object>'
p35
sS'__delattr__'
p36
S"<method-wrapper '__delattr__' of exceptions.ValueError object>"
p37
sS'__subclasshook__'
p38
S'<built-in method __subclasshook__ of type object>'
p39
sS'__repr__'
p40
S"<method-wrapper '__repr__' of exceptions.ValueError object>"
p41
sS'args'
p42
S"('need more than 1 value to unpack',)"
p43
sS'__dict__'
p44
S'{}'
p45
sS'__sizeof__'
p46
S'<built-in method __sizeof__ of exceptions.ValueError object>'
p47
sS'__doc__'
p48
S"'Inappropriate argument value (of correct type).'"
p49
sS'__init__'
p50
S"<method-wrapper '__init__' of exceptions.ValueError object>"
p51
sS'__new__'
p52
S'<built-in method __new__ of type object>'
p53
ssS'evalue'
p54
S'need more than 1 value to unpack'
p55
sS'request'
p56
cgluon.html
XML_unpickle
p57
(S's2^\x00\x00<div><table><tr><td style="font-weight:bold;vertical-align:top;">ajax</td><td style="vertical-align:top;">:</td><td><div>False</div></td></tr><tr><td style="font-weight:bold;vertical-align:top;">application</td><td style="vertical-align:top;">:</td><td><div>Spencers</div></td></tr><tr><td style="font-weight:bold;vertical-align:top;">args</td><td style="vertical-align:top;">:</td><td><div><table></table></div></td></tr><tr><td style="font-weight:bold;vertical-align:top;">cid</td><td style="vertical-align:top;">:</td><td><div>None</div></td></tr><tr><td style="font-weight:bold;vertical-align:top;">client</td><td style="vertical-align:top;">:</td><td><div>127.0.0.1</div></td></tr><tr><td style="font-weight:bold;vertical-align:top;">controller</td><td style="vertical-align:top;">:</td><td><div>default</div></td></tr><tr><td style="font-weight:bold;vertical-align:top;">cookies</td><td style="vertical-align:top;">:</td><td><div><table><tr><td style="font-weight:bold;vertical-align:top;">session_id_admin</td><td style="vertical-align:top;">:</td><td><div>127.0.0.1-35a1a738-7c38-465a-8209-f1f93cdc7189<table><tr><td style="font-weight:bold;vertical-align:top;">comment</td><td style="vertical-align:top;">:</td><td><div></div></td></tr><tr><td style="font-weight:bold;vertical-align:top;">domain</td><td style="vertical-align:top;">:</td><td><div></div></td></tr><tr><td style="font-weight:bold;vertical-align:top;">expires</td><td style="vertical-align:top;">:</td><td><div></div></td></tr><tr><td style="font-weight:bold;vertical-align:top;">httponly</td><td style="vertical-align:top;">:</td><td><div></div></td></tr><tr><td style="font-weight:bold;vertical-align:top;">max-age</td><td style="vertical-align:top;">:</td><td><div></div></td></tr><tr><td style="font-weight:bold;vertical-align:top;">path</td><td style="vertical-align:top;">:</td><td><div></div></td></tr><tr><td style="font-weight:bold;vertical-align:top;">secure</td><td style="vertical-align:top;">:</td><td><div></div></td></tr><tr><td style="font-weight:bold;vertical-align:top;">version</td><td style="vertical-align:top;">:</td><td><div></div></td></tr></table></div></td></tr><tr><td style="font-weight:bold;vertical-align:top;">session_id_intro2db</td><td style="vertical-align:top;">:</td><td><div>127.0.0.1-d8d5491c-a609-4013-9ef8-9f91523f3ed4<table><tr><td style="font-weight:bold;vertical-align:top;">comment</td><td style="vertical-align:top;">:</td><td><div></div></td></tr><tr><td style="font-weight:bold;vertical-align:top;">domain</td><td style="vertical-align:top;">:</td><td><div></div></td></tr><tr><td style="font-weight:bold;vertical-align:top;">expires</td><td style="vertical-align:top;">:</td><td><div></div></td></tr><tr><td style="font-weight:bold;vertical-align:top;">httponly</td><td style="vertical-align:top;">:</td><td><div></div></td></tr><tr><td style="font-weight:bold;vertical-align:top;">max-age</td><td style="vertical-align:top;">:</td><td><div></div></td></tr><tr><td style="font-weight:bold;vertical-align:top;">path</td><td style="vertical-align:top;">:</td><td><div></div></td></tr><tr><td style="font-weight:bold;vertical-align:top;">secure</td><td style="vertical-align:top;">:</td><td><div></div></td></tr><tr><td style="font-weight:bold;vertical-align:top;">version</td><td style="vertical-align:top;">:</td><td><div></div></td></tr></table></div></td></tr><tr><td style="font-weight:bold;vertical-align:top;">session_id_spencers</td><td style="vertical-align:top;">:</td><td><div>127.0.0.1-7bc75820-0689-4290-9869-e3f03a0fd3d8<table><tr><td style="font-weight:bold;vertical-align:top;">comment</td><td style="vertical-align:top;">:</td><td><div></div></td></tr><tr><td style="font-weight:bold;vertical-align:top;">domain</td><td style="vertical-align:top;">:</td><td><div></div></td></tr><tr><td style="font-weight:bold;vertical-align:top;">expires</td><td style="vertical-align:top;">:</td><td><div></div></td></tr><tr><td style="font-weight:bold;vertical-align:top;">httponly</td><td style="vertical-align:top;">:</td><td><div></div></td></tr><tr><td style="font-weight:bold;vertical-align:top;">max-age</td><td style="vertical-align:top;">:</td><td><div></div></td></tr><tr><td style="font-weight:bold;vertical-align:top;">path</td><td style="vertical-align:top;">:</td><td><div></div></td></tr><tr><td style="font-weight:bold;vertical-align:top;">secure</td><td style="vertical-align:top;">:</td><td><div></div></td></tr><tr><td style="font-weight:bold;vertical-align:top;">version</td><td style="vertical-align:top;">:</td><td><div></div></td></tr></table></div></td></tr><tr><td style="font-weight:bold;vertical-align:top;">session_id_welcome</td><td style="vertical-align:top;">:</td><td><div>127.0.0.1-cb74e608-074e-466d-8ba5-81e841868ce6<table><tr><td style="font-weight:bold;vertical-align:top;">comment</td><td style="vertical-align:top;">:</td><td><div></div></td></tr><tr><td style="font-weight:bold;vertical-align:top;">domain</td><td style="vertical-align:top;">:</td><td><div></div></td></tr><tr><td style="font-weight:bold;vertical-align:top;">expires</td><td style="vertical-align:top;">:</td><td><div></div></td></tr><tr><td style="font-weight:bold;vertical-align:top;">httponly</td><td style="vertical-align:top;">:</td><td><div></div></td></tr><tr><td style="font-weight:bold;vertical-align:top;">max-age</td><td style="vertical-align:top;">:</td><td><div></div></td></tr><tr><td style="font-weight:bold;vertical-align:top;">path</td><td style="vertical-align:top;">:</td><td><div></div></td></tr><tr><td style="font-weight:bold;vertical-align:top;">secure</td><td style="vertical-align:top;">:</td><td><div></div></td></tr><tr><td style="font-weight:bold;vertical-align:top;">version</td><td style="vertical-align:top;">:</td><td><div></div></td></tr></table></div></td></tr></table></div></td></tr><tr><td style="font-weight:bold;vertical-align:top;">env</td><td style="vertical-align:top;">:</td><td><div><table><tr><td style="font-weight:bold;vertical-align:top;">HTTP_ACCEPT</td><td style="vertical-align:top;">:</td><td><div>text/html,application/xhtml+xml,application/xml;q=0.9,*/*;q=0.8</div></td></tr><tr><td style="font-weight:bold;vertical-align:top;">HTTP_ACCEPT_ENCODING</td><td style="vertical-align:top;">:</td><td><div>gzip, deflate</div></td></tr><tr><td style="font-weight:bold;vertical-align:top;">HTTP_ACCEPT_LANGUAGE</td><td style="vertical-align:top;">:</td><td><div>en-US,en;q=0.5</div></td></tr><tr><td style="font-weight:bold;vertical-align:top;">HTTP_CONNECTION</td><td style="vertical-align:top;">:</td><td><div>keep-alive</div></td></tr><tr><td style="font-weight:bold;vertical-align:top;">HTTP_COOKIE</td><td style="vertical-align:top;">:</td><td><div>session_id_welcome=127.0.0.1-cb74e608-074e-466d-8ba5-81e841868ce6; session_id_admin=127.0.0.1-35a1a738-7c38-465a-8209-f1f93cdc7189; session_id_intro2db=127.0.0.1-d8d5491c-a609-4013-9ef8-9f91523f3ed4; session_id_spencers=127.0.0.1-7bc75820-0689-4290-9869-e3f03a0fd3d8</div></td></tr><tr><td style="font-weight:bold;vertical-align:top;">HTTP_HOST</td><td style="vertical-align:top;">:</td><td><div>127.0.0.1:8000</div></td></tr><tr><td style="font-weight:bold;vertical-align:top;">HTTP_USER_AGENT</td><td style="vertical-align:top;">:</td><td><div>Mozilla/5.0 (X11; Ubuntu; Linux i686; rv:24.0) Gecko/20100101 Firefox/24.0</div></td></tr><tr><td style="font-weight:bold;vertical-align:top;">PATH_INFO</td><td style="vertical-align:top;">:</td><td><div>/Spencers/default/view_customers</div></td></tr><tr><td style="font-weight:bold;vertical-align:top;">QUERY_STRING</td><td style="vertical-align:top;">:</td><td><div></div></td></tr><tr><td style="font-weight:bold;vertical-align:top;">REMOTE_ADDR</td><td style="vertical-align:top;">:</td><td><div>127.0.0.1</div></td></tr><tr><td style="font-weight:bold;vertical-align:top;">REMOTE_PORT</td><td style="vertical-align:top;">:</td><td><div>42711</div></td></tr><tr><td style="font-weight:bold;vertical-align:top;">REQUEST_METHOD</td><td style="vertical-align:top;">:</td><td><div>GET</div></td></tr><tr><td style="font-weight:bold;vertical-align:top;">SCRIPT_NAME</td><td style="vertical-align:top;">:</td><td><div></div></td></tr><tr><td style="font-weight:bold;vertical-align:top;">SERVER_NAME</td><td style="vertical-align:top;">:</td><td><div>ubuntu</div></td></tr><tr><td style="font-weight:bold;vertical-align:top;">SERVER_PORT</td><td style="vertical-align:top;">:</td><td><div>8000</div></td></tr><tr><td style="font-weight:bold;vertical-align:top;">SERVER_PROTOCOL</td><td style="vertical-align:top;">:</td><td><div>HTTP/1.1</div></td></tr><tr><td style="font-weight:bold;vertical-align:top;">SERVER_SOFTWARE</td><td style="vertical-align:top;">:</td><td><div>Rocket 1.2.6</div></td></tr><tr><td style="font-weight:bold;vertical-align:top;">app_folders</td><td style="vertical-align:top;">:</td><td><div>set([&#x27;/home/brat/web2py/applications/Intro2DB/&#x27;, &#x27;/home/brat/web2py/applications/admin/&#x27;, &#x27;/home/brat/web2py/applications/welcome/&#x27;, &#x27;/home/brat/web2py/applications/Spencers/&#x27;])</div></td></tr><tr><td style="font-weight:bold;vertical-align:top;">applications_parent</td><td style="vertical-align:top;">:</td><td><div>/home/brat/web2py</div></td></tr><tr><td style="font-weight:bold;vertical-align:top;">cmd_args</td><td style="vertical-align:top;">:</td><td><div><table></table></div></td></tr><tr><td style="font-weight:bold;vertical-align:top;">cmd_options</td><td style="vertical-align:top;">:</td><td><div>&lt;Values at 0x8f248ec: {&#x27;verbose&#x27;: False, &#x27;ip&#x27;: &#x27;127.0.0.1&#x27;, &#x27;debuglevel&#x27;: 30, &#x27;with_scheduler&#x27;: False, &#x27;ips&#x27;: [&#x27;127.0.1.1&#x27;], &#x27;shutdown_timeout&#x27;: 5, &#x27;taskbar&#x27;: False, &#x27;with_coverage&#x27;: False, &#x27;port&#x27;: 8000, &#x27;maxthreads&#x27;: None, &#x27;softcron&#x27;: False, &#x27;server_name&#x27;: &#x27;ubuntu&#x27;, &#x27;bpython&#x27;: False, &#x27;nogui&#x27;: True, &#x27;pid_filename&#x27;: &#x27;httpserver.pid&#x27;, &#x27;extcron&#x27;: False, &#x27;runcron&#x27;: False, &#x27;run_system_tests&#x27;: False, &#x27;test&#x27;: None, &#x27;folder&#x27;: &#x27;/home/brat/web2py&#x27;, &#x27;config&#x27;: &#x27;&#x27;, &#x27;import_models&#x27;: False, &#x27;winservice&#x27;: &#x27;&#x27;, &#x27;shell&#x27;: None, &#x27;run&#x27;: &#x27;&#x27;, &#x27;log_filename&#x27;: &#x27;httpserver.log&#x27;, &#x27;profiler_dir&#x27;: None, &#x27;args&#x27;: [&#x27;&#x27;], &#x27;socket_timeout&#x27;: 5, &#x27;ssl_ca_certificate&#x27;: None, &#x27;scheduler&#x27;: None, &#x27;interfaces&#x27;: None, &#x27;ssl_private_key&#x27;: &#x27;&#x27;, &#x27;scheduler_groups&#x27;: None, &#x27;password&#x27;: &#x27;1234&#x27;, &#x27;request_queue_size&#x27;: 5, &#x27;ssl_certificate&#x27;: &#x27;&#x27;, &#x27;cronjob&#x27;: False, &#x27;numthreads&#x27;: None, &#x27;quiet&#x27;: False, &#x27;minthreads&#x27;: None, &#x27;timeout&#x27;: 10, &#x27;plain&#x27;: False, &#x27;nobanner&#x27;: False}&gt;</div></td></tr><tr><td style="font-weight:bold;vertical-align:top;">db_sessions</td><td style="vertical-align:top;">:</td><td><div>set([])</div></td></tr><tr><td style="font-weight:bold;vertical-align:top;">debugging</td><td style="vertical-align:top;">:</td><td><div>True</div></td></tr><tr><td style="font-weight:bold;vertical-align:top;">gluon_parent</td><td style="vertical-align:top;">:</td><td><div>/home/brat/web2py</div></td></tr><tr><td style="font-weight:bold;vertical-align:top;">http_accept</td><td style="vertical-align:top;">:</td><td><div>text/html,application/xhtml+xml,application/xml;q=0.9,*/*;q=0.8</div></td></tr><tr><td style="font-weight:bold;vertical-align:top;">http_accept_encoding</td><td style="vertical-align:top;">:</td><td><div>gzip, deflate</div></td></tr><tr><td style="font-weight:bold;vertical-align:top;">http_accept_language</td><td style="vertical-align:top;">:</td><td><div>en-US,en;q=0.5</div></td></tr><tr><td style="font-weight:bold;vertical-align:top;">http_connection</td><td style="vertical-align:top;">:</td><td><div>keep-alive</div></td></tr><tr><td style="font-weight:bold;vertical-align:top;">http_cookie</td><td style="vertical-align:top;">:</td><td><div>session_id_welcome=127.0.0.1-cb74e608-074e-466d-8ba5-81e841868ce6; session_id_admin=127.0.0.1-35a1a738-7c38-465a-8209-f1f93cdc7189; session_id_intro2db=127.0.0.1-d8d5491c-a609-4013-9ef8-9f91523f3ed4; session_id_spencers=127.0.0.1-7bc75820-0689-4290-9869-e3f03a0fd3d8</div></td></tr><tr><td style="font-weight:bold;vertical-align:top;">http_host</td><td style="vertical-align:top;">:</td><td><div>127.0.0.1:8000</div></td></tr><tr><td style="font-weight:bold;vertical-align:top;">http_user_agent</td><td style="vertical-align:top;">:</td><td><div>Mozilla/5.0 (X11; Ubuntu; Linux i686; rv:24.0) Gecko/20100101 Firefox/24.0</div></td></tr><tr><td style="font-weight:bold;vertical-align:top;">is_jython</td><td style="vertical-align:top;">:</td><td><div>False</div></td></tr><tr><td style="font-weight:bold;vertical-align:top;">is_pypy</td><td style="vertical-align:top;">:</td><td><div>False</div></td></tr><tr><td style="font-weight:bold;vertical-align:top;">is_source</td><td style="vertical-align:top;">:</td><td><div>True</div></td></tr><tr><td style="font-weight:bold;vertical-align:top;">local_hosts</td><td style="vertical-align:top;">:</td><td><div><table><tr><td><div>ubuntu.ubuntu-domain</div></td></tr><tr><td><div>::ffff:127.0.0.1</div></td></tr><tr><td><div>::1</div></td></tr><tr><td><div>ubuntu</div></td></tr><tr><td><div>127.0.1.1</div></td></tr><tr><td><div>127.0.0.1</div></td></tr></table></div></td></tr><tr><td style="font-weight:bold;vertical-align:top;">path_info</td><td style="vertical-align:top;">:</td><td><div>/Spencers/default/view_customers</div></td></tr><tr><td style="font-weight:bold;vertical-align:top;">query_string</td><td style="vertical-align:top;">:</td><td><div></div></td></tr><tr><td style="font-weight:bold;vertical-align:top;">remote_addr</td><td style="vertical-align:top;">:</td><td><div>127.0.0.1</div></td></tr><tr><td style="font-weight:bold;vertical-align:top;">remote_port</td><td style="vertical-align:top;">:</td><td><div>42711</div></td></tr><tr><td style="font-weight:bold;vertical-align:top;">request_method</td><td style="vertical-align:top;">:</td><td><div>GET</div></td></tr><tr><td style="font-weight:bold;vertical-align:top;">request_uri</td><td style="vertical-align:top;">:</td><td><div>/Spencers/default/view_customers</div></td></tr><tr><td style="font-weight:bold;vertical-align:top;">script_name</td><td style="vertical-align:top;">:</td><td><div></div></td></tr><tr><td style="font-weight:bold;vertical-align:top;">server_name</td><td style="vertical-align:top;">:</td><td><div>ubuntu</div></td></tr><tr><td style="font-weight:bold;vertical-align:top;">server_port</td><td style="vertical-align:top;">:</td><td><div>8000</div></td></tr><tr><td style="font-weight:bold;vertical-align:top;">server_protocol</td><td style="vertical-align:top;">:</td><td><div>HTTP/1.1</div></td></tr><tr><td style="font-weight:bold;vertical-align:top;">server_software</td><td style="vertical-align:top;">:</td><td><div>Rocket 1.2.6</div></td></tr><tr><td style="font-weight:bold;vertical-align:top;">web2py_path</td><td style="vertical-align:top;">:</td><td><div>/home/brat/web2py</div></td></tr><tr><td style="font-weight:bold;vertical-align:top;">web2py_version</td><td style="vertical-align:top;">:</td><td><div>2.6.3-stable+timestamp.2013.09.15.17.01.20</div></td></tr><tr><td style="font-weight:bold;vertical-align:top;">wsgi.errors</td><td style="vertical-align:top;">:</td><td><div>&lt;open file &#x27;&lt;stderr&gt;&#x27;, mode &#x27;w&#x27; at 0xb73440d0&gt;</div></td></tr><tr><td style="font-weight:bold;vertical-align:top;">wsgi.file_wrapper</td><td style="vertical-align:top;">:</td><td><div>&lt;class wsgiref.util.FileWrapper at 0x8ed9e9c&gt;</div></td></tr><tr><td style="font-weight:bold;vertical-align:top;">wsgi.input</td><td style="vertical-align:top;">:</td><td><div>&lt;socket._fileobject object at 0xae7ac8ac&gt;</div></td></tr><tr><td style="font-weight:bold;vertical-align:top;">wsgi.multiprocess</td><td style="vertical-align:top;">:</td><td><div>False</div></td></tr><tr><td style="font-weight:bold;vertical-align:top;">wsgi.multithread</td><td style="vertical-align:top;">:</td><td><div>True</div></td></tr><tr><td style="font-weight:bold;vertical-align:top;">wsgi.run_once</td><td style="vertical-align:top;">:</td><td><div>False</div></td></tr><tr><td style="font-weight:bold;vertical-align:top;">wsgi.url_scheme</td><td style="vertical-align:top;">:</td><td><div>http</div></td></tr><tr><td style="font-weight:bold;vertical-align:top;">wsgi.version</td><td style="vertical-align:top;">:</td><td><div><table><tr><td><div>1</div></td></tr><tr><td><div>0</div></td></tr></table></div></td></tr><tr><td style="font-weight:bold;vertical-align:top;">wsgi_errors</td><td style="vertical-align:top;">:</td><td><div>&lt;open file &#x27;&lt;stderr&gt;&#x27;, mode &#x27;w&#x27; at 0xb73440d0&gt;</div></td></tr><tr><td style="font-weight:bold;vertical-align:top;">wsgi_file_wrapper</td><td style="vertical-align:top;">:</td><td><div>&lt;class wsgiref.util.FileWrapper at 0x8ed9e9c&gt;</div></td></tr><tr><td style="font-weight:bold;vertical-align:top;">wsgi_input</td><td style="vertical-align:top;">:</td><td><div>&lt;socket._fileobject object at 0xae7ac8ac&gt;</div></td></tr><tr><td style="font-weight:bold;vertical-align:top;">wsgi_multiprocess</td><td style="vertical-align:top;">:</td><td><div>False</div></td></tr><tr><td style="font-weight:bold;vertical-align:top;">wsgi_multithread</td><td style="vertical-align:top;">:</td><td><div>True</div></td></tr><tr><td style="font-weight:bold;vertical-align:top;">wsgi_run_once</td><td style="vertical-align:top;">:</td><td><div>False</div></td></tr><tr><td style="font-weight:bold;vertical-align:top;">wsgi_url_scheme</td><td style="vertical-align:top;">:</td><td><div>http</div></td></tr><tr><td style="font-weight:bold;vertical-align:top;">wsgi_version</td><td style="vertical-align:top;">:</td><td><div><table><tr><td><div>1</div></td></tr><tr><td><div>0</div></td></tr></table></div></td></tr></table></div></td></tr><tr><td style="font-weight:bold;vertical-align:top;">extension</td><td style="vertical-align:top;">:</td><td><div>html</div></td></tr><tr><td style="font-weight:bold;vertical-align:top;">folder</td><td style="vertical-align:top;">:</td><td><div>/home/brat/web2py/applications/Spencers/</div></td></tr><tr><td style="font-weight:bold;vertical-align:top;">function</td><td style="vertical-align:top;">:</td><td><div>view_customers</div></td></tr><tr><td style="font-weight:bold;vertical-align:top;">global_settings</td><td style="vertical-align:top;">:</td><td><div><table><tr><td style="font-weight:bold;vertical-align:top;">app_folders</td><td style="vertical-align:top;">:</td><td><div>set([&#x27;/home/brat/web2py/applications/Intro2DB/&#x27;, &#x27;/home/brat/web2py/applications/admin/&#x27;, &#x27;/home/brat/web2py/applications/welcome/&#x27;, &#x27;/home/brat/web2py/applications/Spencers/&#x27;])</div></td></tr><tr><td style="font-weight:bold;vertical-align:top;">applications_parent</td><td style="vertical-align:top;">:</td><td><div>/home/brat/web2py</div></td></tr><tr><td style="font-weight:bold;vertical-align:top;">cmd_args</td><td style="vertical-align:top;">:</td><td><div><table></table></div></td></tr><tr><td style="font-weight:bold;vertical-align:top;">cmd_options</td><td style="vertical-align:top;">:</td><td><div>&lt;Values at 0x8f248ec: {&#x27;verbose&#x27;: False, &#x27;ip&#x27;: &#x27;127.0.0.1&#x27;, &#x27;debuglevel&#x27;: 30, &#x27;with_scheduler&#x27;: False, &#x27;ips&#x27;: [&#x27;127.0.1.1&#x27;], &#x27;shutdown_timeout&#x27;: 5, &#x27;taskbar&#x27;: False, &#x27;with_coverage&#x27;: False, &#x27;port&#x27;: 8000, &#x27;maxthreads&#x27;: None, &#x27;softcron&#x27;: False, &#x27;server_name&#x27;: &#x27;ubuntu&#x27;, &#x27;bpython&#x27;: False, &#x27;nogui&#x27;: True, &#x27;pid_filename&#x27;: &#x27;httpserver.pid&#x27;, &#x27;extcron&#x27;: False, &#x27;runcron&#x27;: False, &#x27;run_system_tests&#x27;: False, &#x27;test&#x27;: None, &#x27;folder&#x27;: &#x27;/home/brat/web2py&#x27;, &#x27;config&#x27;: &#x27;&#x27;, &#x27;import_models&#x27;: False, &#x27;winservice&#x27;: &#x27;&#x27;, &#x27;shell&#x27;: None, &#x27;run&#x27;: &#x27;&#x27;, &#x27;log_filename&#x27;: &#x27;httpserver.log&#x27;, &#x27;profiler_dir&#x27;: None, &#x27;args&#x27;: [&#x27;&#x27;], &#x27;socket_timeout&#x27;: 5, &#x27;ssl_ca_certificate&#x27;: None, &#x27;scheduler&#x27;: None, &#x27;interfaces&#x27;: None, &#x27;ssl_private_key&#x27;: &#x27;&#x27;, &#x27;scheduler_groups&#x27;: None, &#x27;password&#x27;: &#x27;1234&#x27;, &#x27;request_queue_size&#x27;: 5, &#x27;ssl_certificate&#x27;: &#x27;&#x27;, &#x27;cronjob&#x27;: False, &#x27;numthreads&#x27;: None, &#x27;quiet&#x27;: False, &#x27;minthreads&#x27;: None, &#x27;timeout&#x27;: 10, &#x27;plain&#x27;: False, &#x27;nobanner&#x27;: False}&gt;</div></td></tr><tr><td style="font-weight:bold;vertical-align:top;">db_sessions</td><td style="vertical-align:top;">:</td><td><div>set([])</div></td></tr><tr><td style="font-weight:bold;vertical-align:top;">debugging</td><td style="vertical-align:top;">:</td><td><div>True</div></td></tr><tr><td style="font-weight:bold;vertical-align:top;">gluon_parent</td><td style="vertical-align:top;">:</td><td><div>/home/brat/web2py</div></td></tr><tr><td style="font-weight:bold;vertical-align:top;">is_jython</td><td style="vertical-align:top;">:</td><td><div>False</div></td></tr><tr><td style="font-weight:bold;vertical-align:top;">is_pypy</td><td style="vertical-align:top;">:</td><td><div>False</div></td></tr><tr><td style="font-weight:bold;vertical-align:top;">is_source</td><td style="vertical-align:top;">:</td><td><div>True</div></td></tr><tr><td style="font-weight:bold;vertical-align:top;">local_hosts</td><td style="vertical-align:top;">:</td><td><div><table><tr><td><div>ubuntu.ubuntu-domain</div></td></tr><tr><td><div>::ffff:127.0.0.1</div></td></tr><tr><td><div>::1</div></td></tr><tr><td><div>ubuntu</div></td></tr><tr><td><div>127.0.1.1</div></td></tr><tr><td><div>127.0.0.1</div></td></tr></table></div></td></tr><tr><td style="font-weight:bold;vertical-align:top;">web2py_version</td><td style="vertical-align:top;">:</td><td><div>2.6.3-stable+timestamp.2013.09.15.17.01.20</div></td></tr></table></div></td></tr><tr><td style="font-weight:bold;vertical-align:top;">is_https</td><td style="vertical-align:top;">:</td><td><div>False</div></td></tr><tr><td style="font-weight:bold;vertical-align:top;">is_local</td><td style="vertical-align:top;">:</td><td><div>True</div></td></tr><tr><td style="font-weight:bold;vertical-align:top;">is_restful</td><td style="vertical-align:top;">:</td><td><div>False</div></td></tr><tr><td style="font-weight:bold;vertical-align:top;">now</td><td style="vertical-align:top;">:</td><td><div>datetime.datetime(2013, 10, 26, 23, 51, 19, 157065)</div></td></tr><tr><td style="font-weight:bold;vertical-align:top;">raw_args</td><td style="vertical-align:top;">:</td><td><div></div></td></tr><tr><td style="font-weight:bold;vertical-align:top;">raw_extension</td><td style="vertical-align:top;">:</td><td><div>None</div></td></tr><tr><td style="font-weight:bold;vertical-align:top;">url</td><td style="vertical-align:top;">:</td><td><div>/Spencers/default/view_customers</div></td></tr><tr><td style="font-weight:bold;vertical-align:top;">utcnow</td><td style="vertical-align:top;">:</td><td><div>datetime.datetime(2013, 10, 26, 18, 21, 19, 157120)</div></td></tr><tr><td style="font-weight:bold;vertical-align:top;">uuid</td><td style="vertical-align:top;">:</td><td><div>Spencers/127.0.0.1.2013-10-26.23-51-19.0a8b7589-e945-4695-9595-f2168b350ef0</div></td></tr><tr><td style="font-weight:bold;vertical-align:top;">wsgi</td><td style="vertical-align:top;">:</td><td><div>&lt;gluon.main.LazyWSGI object at 0xadd4e42c&gt;</div></td></tr></table></div>'
tRp58
sS'frames'
p59
(lp60
(dp61
S'file'
p62
S'/home/brat/web2py/gluon/restricted.py'
p63
sS'dump'
p64
(dp65
S'environment'
p66
S"{'A': <class 'gluon.html.A'>, 'ANY_OF': <class 'gluon.validators.ANY_OF'>, 'Auth': <class 'gluon.tools.Auth'>, 'B': <class 'gluon.html.B'>, 'BEAUTIFY': <class 'gluon.html.BEAUTIFY'>, 'BODY': <class 'gluon.html.BODY'>, 'BR': <class 'gluon.html.BR'>, 'BUTTON': <class 'gluon.html.BUTTON'>, 'CAT': <class 'gluon.html.CAT'>, 'CENTER': <class 'gluon.html.CENTER'>, ...}"
p67
sS'ccode'
p68
S'<code object <module> at 0xadd7a4e8, file "/home...ncers/views/default/view_customers.html", line 1>'
p69
ssS'lnum'
p70
I217
sS'lines'
p71
(dp72
I212
S'    try:'
p73
sI213
S'        if isinstance(code, types.CodeType):'
p74
sI214
S'            ccode = code'
p75
sI215
S'        else:'
p76
sI216
S'            ccode = compile2(code, layer)'
p77
sI217
S'        exec ccode in environment'
p78
sI218
S'    except HTTP:'
p79
sI219
S'        raise'
p80
sI220
S'    except RestrictedError:'
p81
sI221
S'        # do not encapsulate (obfuscate) the original RestrictedError'
p82
ssS'call'
p83
S'(code=\'response.write(\\\'<!--[if HTML5]><![endif]-->\\\\n<!D...(\\\'"></script>\\\\n</body>\\\\n</html>\\\\n\\\', escape=False)\', environment={\'A\': <class \'gluon.html.A\'>, \'ANY_OF\': <class \'gluon.validators.ANY_OF\'>, \'Auth\': <class \'gluon.tools.Auth\'>, \'B\': <class \'gluon.html.B\'>, \'BEAUTIFY\': <class \'gluon.html.BEAUTIFY\'>, \'BODY\': <class \'gluon.html.BODY\'>, \'BR\': <class \'gluon.html.BR\'>, \'BUTTON\': <class \'gluon.html.BUTTON\'>, \'CAT\': <class \'gluon.html.CAT\'>, \'CENTER\': <class \'gluon.html.CENTER\'>, ...}, layer=\'/home/brat/web2py/applications/Spencers/views/default/view_customers.html\')'
p84
sS'func'
p85
S'restricted'
p86
sa(dp87
g62
S'/home/brat/web2py/applications/Spencers/views/default/view_customers.html'
p88
sg64
(dp89
sg70
I71
sg71
(dp90
I64
S'response.write(\'\\n        <ul id="navbar" class="nav pull-right">\', escape=False)'
p91
sI65
S'response.write(\'auth\' in globals() and auth.navbar(mode="dropdown") or \'\')'
p92
sI66
S'response.write(\'</ul>\\n        <div class="\', escape=False)'
p93
sI67
S"response.write('nav-collapse' if is_mobile else 'nav')"
p94
sI68
S'response.write(\'">\\n          \', escape=False)'
p95
sI69
S'if response.menu:'
p96
sI70
S"    response.write('\\n          ', escape=False)"
p97
sI71
S"    response.write(MENU(response.menu, _class='mobile-menu nav' if is_mobile else 'nav',mobile=is_mobile,li_class='dropdown',ul_class='dropdown-menu'))"
p98
sI72
S"    response.write('\\n          ', escape=False)"
p99
sI73
S'    pass'
p100
sI74
S'response.write(\'\\n        </div><!--/.nav-collapse -->\\n      </div>\\n    </div>\\n  </div><!--/top navbar -->\\n\\n  <div class="container">\\n\\t  \\n    <!-- Masthead ================================================== -->\\n    <header class="mastheader row" id="header">\\n\\t\\t<table>\\n      \', escape=False)'
p101
sI75
S'if response.title:'
p102
sI76
S'    response.write(\'\\n      <tr><td>\\n        <div class="span30">\\n            <div class="page-header">\\n                <h1>\\n                    \\n                    \', escape=False)'
p103
sI77
S'    if response.title=="Spencers":'
p104
sI78
S'        response.write(\'\\n                    <img src="\', escape=False)'
p105
sI79
S"        response.write(URL('static', 'images/logo.jpg'))"
p106
sI80
S'        response.write(\'"/>\\n                    \', escape=False)'
p107
sI81
S'    else:'
p108
sI62
S'response.write(\'">\\n          <span class="icon-bar"></span>\\n          <span class="icon-bar"></span>\\n          <span class="icon-bar"></span>\\n        </button>\\n        \', escape=False)'
p109
sI63
S"response.write(response.logo or '')"
p110
ssg83
S'()'
p111
sg85
S'<module>'
p112
sa(dp113
g62
S'/home/brat/web2py/gluon/globals.py'
p114
sg64
(dp115
S'self.body.write'
p116
S'<built-in method write of cStringIO.StringO object>'
p117
sS'self.body'
p118
S'<cStringIO.StringO object>'
p119
sS'self'
p120
S"<Storage {'body': <cStringIO.StringO object at 0...dd6f7d4>, 'view': 'default/view_customers.html'}>"
p121
sS'global xmlescape'
p122
S'<function xmlescape>'
p123
sS'data'
p124
S'<gluon.html.MENU object>'
p125
ssg70
I387
sg71
(dp126
I384
S'        if not escape:'
p127
sI385
S'            self.body.write(str(data))'
p128
sI386
S'        else:'
p129
sI387
S'            self.body.write(xmlescape(data))'
p130
sI388
S''
sI389
S'    def render(self, *a, **b):'
p131
sI390
S'        from compileapp import run_view_in'
p132
sI391
S'        if len(a) > 2:'
p133
sI382
S''
sI383
S'    def write(self, data, escape=True):'
p134
ssg83
S"(self=<Storage {'body': <cStringIO.StringO object at 0...dd6f7d4>, 'view': 'default/view_customers.html'}>, data=<gluon.html.MENU object>, escape=True)"
p135
sg85
S'write'
p136
sa(dp137
g62
S'/home/brat/web2py/gluon/html.py'
p138
sg64
(dp139
S'data'
p140
S'<gluon.html.MENU object>'
p141
sS'data.xml'
p142
S'<bound method MENU.xml of <gluon.html.MENU object>>'
p143
ssg70
I120
sg71
(dp144
I115
S'    :param quote: optional (default False)'
p145
sI116
S'    """'
p146
sI117
S''
sI118
S'    # first try the xml function'
p147
sI119
S"    if hasattr(data, 'xml') and callable(data.xml):"
p148
sI120
S'        return data.xml()'
p149
sI121
S''
sI122
S'    # otherwise, make it a string'
p150
sI123
S'    if not isinstance(data, (str, unicode)):'
p151
sI124
S'        data = str(data)'
p152
ssg83
S'(data=<gluon.html.MENU object>, quote=True)'
p153
sg85
S'xmlescape'
p154
sa(dp155
g62
S'/home/brat/web2py/gluon/html.py'
p156
sg64
(dp157
S'self.serialize'
p158
S'<bound method MENU.serialize of <gluon.html.MENU object>>'
p159
sS').xml'
p160
S'undefined'
p161
sS'self'
p162
S'<gluon.html.MENU object>'
p163
sS'self.data'
p164
S"[(<lazyT 'Home'>, False, '/Spencers/default/index', (<lazyT 'Catalogue'>, False, '/Spencers/default/default/view_products'), (<lazyT 'Billing'>, False, '/Spencers/default/default/bills'), (<lazyT 'Customers'>, False, '/Spencers/default/default/view_customers'), []), (<gluon.html.SPAN object>, False, 'http://web2py.com', [(<lazyT 'My Sites'>, False, '/admin/default/site'), (<lazyT 'This App'>, False, '/admin/default/design/Spencers', [(<lazyT 'Controller'>, False, '/admin/default/edit/Spencers/controllers/default.py'), (<lazyT 'View'>, False, '/admin/default/edit/Spencers/views/default/view_customers.html'), (<lazyT 'Layout'>, False, '/admin/default/edit/Spencers/views/layout.html'), (<lazyT 'Stylesheet'>, False, '/admin/default/edit/Spencers/static/css/web2py.css'), (<lazyT 'DB Model'>, False, '/admin/default/edit/Spencers/models/db.py'), (<lazyT 'Menu Model'>, False, '/admin/default/edit/Spencers/models/menu.py'), (<lazyT 'Database'>, False, '/Spencers/appadmin/index'), (<lazyT 'Errors'>, False, '/admin/default/errors/Spencers'), (<lazyT 'About'>, False, '/admin/default/about/Spencers')]), ('web2py.com', False, 'http://www.web2py.com', [(<lazyT 'Download'>, False, 'http://www.web2py.com/examples/default/download'), (<lazyT 'Support'>, False, 'http://www.web2py.com/examples/default/support'), (<lazyT 'Demo'>, False, 'http://web2py.com/demo_admin'), (<lazyT 'Quick Examples'>, False, 'http://web2py.com/examples/default/examples'), (<lazyT 'FAQ'>, False, 'http://web2py.com/AlterEgo'), (<lazyT 'Videos'>, False, 'http://www.web2py.com/examples/default/videos/'), (<lazyT 'Free Applications'>, False, 'http://web2py.com/appliances'), (<lazyT 'Plugins'>, False, 'http://web2py.com/plugins'), (<lazyT 'Layouts'>, False, 'http://web2py.com/layouts'), (<lazyT 'Recipes'>, False, 'http://web2pyslices.com/'), (<lazyT 'Semantic'>, False, 'http://web2py.com/semantic')]), (<lazyT 'Documentation'>, False, 'http://www.web2py.com/book', [(<lazyT 'Preface'>, False, 'http://www.web2py.com/book/default/chapter/00'), (<lazyT 'Introduction'>, False, 'http://www.web2py.com/book/default/chapter/01'), (<lazyT 'Python'>, False, 'http://www.web2py.com/book/default/chapter/02'), (<lazyT 'Overview'>, False, 'http://www.web2py.com/book/default/chapter/03'), (<lazyT 'The Core'>, False, 'http://www.web2py.com/book/default/chapter/04'), (<lazyT 'The Views'>, False, 'http://www.web2py.com/book/default/chapter/05'), (<lazyT 'Database'>, False, 'http://www.web2py.com/book/default/chapter/06'), (<lazyT 'Forms and Validators'>, False, 'http://www.web2py.com/book/default/chapter/07'), (<lazyT 'Email and SMS'>, False, 'http://www.web2py.com/book/default/chapter/08'), (<lazyT 'Access Control'>, False, 'http://www.web2py.com/book/default/chapter/09'), (<lazyT 'Services'>, False, 'http://www.web2py.com/book/default/chapter/10'), (<lazyT 'Ajax Recipes'>, False, 'http://www.web2py.com/book/default/chapter/11'), (<lazyT 'Components and Plugins'>, False, 'http://www.web2py.com/book/default/chapter/12'), (<lazyT 'Deployment Recipes'>, False, 'http://www.web2py.com/book/default/chapter/13'), (<lazyT 'Other Recipes'>, False, 'http://www.web2py.com/book/default/chapter/14'), (<lazyT 'Buy this book'>, False, 'http://stores.lulu.com/web2py')]), (<lazyT 'Community'>, False, None, [(<lazyT 'Groups'>, False, 'http://www.web2py.com/examples/default/usergroups'), (<lazyT 'Twitter'>, False, 'http://twitter.com/web2py'), (<lazyT 'Live Chat'>, False, 'http://webchat.freenode.net/?channels=web2py')]), (<lazyT 'Plugins'>, False, None, [('plugin_wiki', False, 'http://web2py.com/examples/default/download'), (<lazyT 'Other Plugins'>, False, 'http://web2py.com/plugins'), (<lazyT 'Layout Plugins'>, False, 'http://web2py.com/layouts')])])]"
p165
ssg70
I2482
sg71
(dp166
I2477
S''
sI2478
S'    def xml(self):'
p167
sI2479
S"        if self['mobile']:"
p168
sI2480
S'            return self.serialize_mobile(self.data, 0).xml()'
p169
sI2481
S'        else:'
p170
sI2482
S'            return self.serialize(self.data, 0).xml()'
p171
sI2483
S''
sI2484
S''
sI2485
S'def embed64('
p172
sI2486
S'    filename=None,'
p173
ssg83
S'(self=<gluon.html.MENU object>)'
p174
sg85
S'xml'
p175
sa(dp176
g62
S'/home/brat/web2py/gluon/html.py'
p177
sg64
(dp178
S'level'
p179
S'0'
sS'self'
p180
S'<gluon.html.MENU object>'
p181
sS'li'
p182
S'<gluon.html.LI object>'
p183
sS'li.append'
p184
S'<bound method LI.append of <gluon.html.LI object>>'
p185
sS'item'
p186
S"(<lazyT 'Home'>, False, '/Spencers/default/index', (<lazyT 'Catalogue'>, False, '/Spencers/default/default/view_products'), (<lazyT 'Billing'>, False, '/Spencers/default/default/bills'), (<lazyT 'Customers'>, False, '/Spencers/default/default/view_customers'), [])"
p187
sS'self.serialize'
p188
S'<bound method MENU.serialize of <gluon.html.MENU object>>'
p189
ssg70
I2447
sg71
(dp190
I2442
S"                    li['_class'] = self['li_first']"
p191
sI2443
S'                elif level == 0 and item == data[-1]:'
p192
sI2444
S"                    li['_class'] = self['li_last']"
p193
sI2445
S'                if len(item) > 3 and item[3]:'
p194
sI2446
S"                    li['_class'] = self['li_class']"
p195
sI2447
S'                    li.append(self.serialize(item[3], level + 1))'
p196
sI2448
S"                if active or ('active_url' in self.attributes and self['active_url'] == link):"
p197
sI2449
S"                    if li['_class']:"
p198
sI2450
S"                        li['_class'] = li['_class'] + ' ' + self['li_active']"
p199
sI2451
S'                    else:'
p200
ssg83
S"(self=<gluon.html.MENU object>, data=[(<lazyT 'Home'>, False, '/Spencers/default/index', (<lazyT 'Catalogue'>, False, '/Spencers/default/default/view_products'), (<lazyT 'Billing'>, False, '/Spencers/default/default/bills'), (<lazyT 'Customers'>, False, '/Spencers/default/default/view_customers'), []), (<gluon.html.SPAN object>, False, 'http://web2py.com', [(<lazyT 'My Sites'>, False, '/admin/default/site'), (<lazyT 'This App'>, False, '/admin/default/design/Spencers', [(<lazyT 'Controller'>, False, '/admin/default/edit/Spencers/controllers/default.py'), (<lazyT 'View'>, False, '/admin/default/edit/Spencers/views/default/view_customers.html'), (<lazyT 'Layout'>, False, '/admin/default/edit/Spencers/views/layout.html'), (<lazyT 'Stylesheet'>, False, '/admin/default/edit/Spencers/static/css/web2py.css'), (<lazyT 'DB Model'>, False, '/admin/default/edit/Spencers/models/db.py'), (<lazyT 'Menu Model'>, False, '/admin/default/edit/Spencers/models/menu.py'), (<lazyT 'Database'>, False, '/Spencers/appadmin/index'), (<lazyT 'Errors'>, False, '/admin/default/errors/Spencers'), (<lazyT 'About'>, False, '/admin/default/about/Spencers')]), ('web2py.com', False, 'http://www.web2py.com', [(<lazyT 'Download'>, False, 'http://www.web2py.com/examples/default/download'), (<lazyT 'Support'>, False, 'http://www.web2py.com/examples/default/support'), (<lazyT 'Demo'>, False, 'http://web2py.com/demo_admin'), (<lazyT 'Quick Examples'>, False, 'http://web2py.com/examples/default/examples'), (<lazyT 'FAQ'>, False, 'http://web2py.com/AlterEgo'), (<lazyT 'Videos'>, False, 'http://www.web2py.com/examples/default/videos/'), (<lazyT 'Free Applications'>, False, 'http://web2py.com/appliances'), (<lazyT 'Plugins'>, False, 'http://web2py.com/plugins'), (<lazyT 'Layouts'>, False, 'http://web2py.com/layouts'), (<lazyT 'Recipes'>, False, 'http://web2pyslices.com/'), (<lazyT 'Semantic'>, False, 'http://web2py.com/semantic')]), (<lazyT 'Documentation'>, False, 'http://www.web2py.com/book', [(<lazyT 'Preface'>, False, 'http://www.web2py.com/book/default/chapter/00'), (<lazyT 'Introduction'>, False, 'http://www.web2py.com/book/default/chapter/01'), (<lazyT 'Python'>, False, 'http://www.web2py.com/book/default/chapter/02'), (<lazyT 'Overview'>, False, 'http://www.web2py.com/book/default/chapter/03'), (<lazyT 'The Core'>, False, 'http://www.web2py.com/book/default/chapter/04'), (<lazyT 'The Views'>, False, 'http://www.web2py.com/book/default/chapter/05'), (<lazyT 'Database'>, False, 'http://www.web2py.com/book/default/chapter/06'), (<lazyT 'Forms and Validators'>, False, 'http://www.web2py.com/book/default/chapter/07'), (<lazyT 'Email and SMS'>, False, 'http://www.web2py.com/book/default/chapter/08'), (<lazyT 'Access Control'>, False, 'http://www.web2py.com/book/default/chapter/09'), (<lazyT 'Services'>, False, 'http://www.web2py.com/book/default/chapter/10'), (<lazyT 'Ajax Recipes'>, False, 'http://www.web2py.com/book/default/chapter/11'), (<lazyT 'Components and Plugins'>, False, 'http://www.web2py.com/book/default/chapter/12'), (<lazyT 'Deployment Recipes'>, False, 'http://www.web2py.com/book/default/chapter/13'), (<lazyT 'Other Recipes'>, False, 'http://www.web2py.com/book/default/chapter/14'), (<lazyT 'Buy this book'>, False, 'http://stores.lulu.com/web2py')]), (<lazyT 'Community'>, False, None, [(<lazyT 'Groups'>, False, 'http://www.web2py.com/examples/default/usergroups'), (<lazyT 'Twitter'>, False, 'http://twitter.com/web2py'), (<lazyT 'Live Chat'>, False, 'http://webchat.freenode.net/?channels=web2py')]), (<lazyT 'Plugins'>, False, None, [('plugin_wiki', False, 'http://web2py.com/examples/default/download'), (<lazyT 'Other Plugins'>, False, 'http://web2py.com/plugins'), (<lazyT 'Layout Plugins'>, False, 'http://web2py.com/layouts')])])], level=0)"
p201
sg85
S'serialize'
p202
sa(dp203
g62
S'/home/brat/web2py/gluon/html.py'
p204
sg64
(dp205
S'level'
p206
S'1'
sS'self'
p207
S'<gluon.html.MENU object>'
p208
sS'li'
p209
S'<gluon.html.LI object>'
p210
sS'li.append'
p211
S'<bound method LI.append of <gluon.html.LI object>>'
p212
sS'item'
p213
S"<lazyT 'Catalogue'>"
p214
sS'self.serialize'
p215
S'<bound method MENU.serialize of <gluon.html.MENU object>>'
p216
ssg70
I2447
sg71
(dp217
I2442
S"                    li['_class'] = self['li_first']"
p218
sI2443
S'                elif level == 0 and item == data[-1]:'
p219
sI2444
S"                    li['_class'] = self['li_last']"
p220
sI2445
S'                if len(item) > 3 and item[3]:'
p221
sI2446
S"                    li['_class'] = self['li_class']"
p222
sI2447
S'                    li.append(self.serialize(item[3], level + 1))'
p223
sI2448
S"                if active or ('active_url' in self.attributes and self['active_url'] == link):"
p224
sI2449
S"                    if li['_class']:"
p225
sI2450
S"                        li['_class'] = li['_class'] + ' ' + self['li_active']"
p226
sI2451
S'                    else:'
p227
ssg83
S"(self=<gluon.html.MENU object>, data=(<lazyT 'Catalogue'>, False, '/Spencers/default/default/view_products'), level=1)"
p228
sg85
g202
sa(dp229
g62
S'/home/brat/web2py/gluon/html.py'
p230
sg64
(dp231
S'active'
p232
g161
sS'item'
p233
S"'a'"
p234
sS'link'
p235
g161
sS'name'
p236
g161
ssg70
I2427
sg71
(dp237
I2422
S"            ul = UL(_class=self['ul_class'])"
p238
sI2423
S'        for item in data:'
p239
sI2424
S'            if isinstance(item,LI):'
p240
sI2425
S'                ul.append(item)'
p241
sI2426
S'            else:'
p242
sI2427
S'                (name, active, link) = item[:3]'
p243
sI2428
S'                if isinstance(link, DIV):'
p244
sI2429
S'                    li = LI(link)'
p245
sI2430
S"                elif 'no_link_url' in self.attributes and self['no_link_url'] == link:"
p246
sI2431
S'                    li = LI(DIV(name))'
p247
ssg83
S"(self=<gluon.html.MENU object>, data='a', level=2)"
p248
sg85
g202
sasS'pyver'
p249
S'Python 2.7.3: /usr/bin/python (prefix: /usr)'
p250
sS'session'
p251
g57
(S's\xba\x01\x00\x00<div><table><tr><td style="font-weight:bold;vertical-align:top;">flash</td><td style="vertical-align:top;">:</td><td><div>None</div></td></tr><tr><td style="font-weight:bold;vertical-align:top;">last_orderby</td><td style="vertical-align:top;">:</td><td><div>None</div></td></tr><tr><td style="font-weight:bold;vertical-align:top;">last_query</td><td style="vertical-align:top;">:</td><td><div>db.DEALERS.id&gt;0</div></td></tr></table></div>'
tRp252
sS'etype'
p253
S"<type 'exceptions.ValueError'>"
p254
sS'date'
p255
S'Sat Oct 26 23:51:19 2013'
p256
sS'response'
p257
g57
(S's\xa81\x00\x00<div><table><tr><td style="font-weight:bold;vertical-align:top;">body</td><td style="vertical-align:top;">:</td><td><div>&lt;cStringIO.StringO object at 0xad833660&gt;</div></td></tr><tr><td style="font-weight:bold;vertical-align:top;">cookies</td><td style="vertical-align:top;">:</td><td><div><table></table></div></td></tr><tr><td style="font-weight:bold;vertical-align:top;">delimiters</td><td style="vertical-align:top;">:</td><td><div><table><tr><td><div>{{</div></td></tr><tr><td><div>}}</div></td></tr></table></div></td></tr><tr><td style="font-weight:bold;vertical-align:top;">files</td><td style="vertical-align:top;">:</td><td><div><table><tr><td><div>/Spencers/static/js/jquery.js</div></td></tr><tr><td><div>/Spencers/static/css/calendar.css</div></td></tr><tr><td><div>/Spencers/static/js/calendar.js</div></td></tr><tr><td><div>/Spencers/static/js/web2py.js</div></td></tr><tr><td><div>/Spencers/static/css/web2py.css</div></td></tr><tr><td><div>/Spencers/static/css/bootstrap.min.css</div></td></tr><tr><td><div>/Spencers/static/css/bootstrap-responsive.min.css</div></td></tr><tr><td><div>/Spencers/static/css/web2py_bootstrap.css</div></td></tr></table></div></td></tr><tr><td style="font-weight:bold;vertical-align:top;">flash</td><td style="vertical-align:top;">:</td><td><div></div></td></tr><tr><td style="font-weight:bold;vertical-align:top;">generic_patterns</td><td style="vertical-align:top;">:</td><td><div><table><tr><td><div>*</div></td></tr></table></div></td></tr><tr><td style="font-weight:bold;vertical-align:top;">google_analytics_id</td><td style="vertical-align:top;">:</td><td><div>None</div></td></tr><tr><td style="font-weight:bold;vertical-align:top;">headers</td><td style="vertical-align:top;">:</td><td><div><table><tr><td style="font-weight:bold;vertical-align:top;">X-Powered-By</td><td style="vertical-align:top;">:</td><td><div>web2py</div></td></tr></table></div></td></tr><tr><td style="font-weight:bold;vertical-align:top;">logo</td><td style="vertical-align:top;">:</td><td><div><a class="brand" data-w2p_disable_with="default" href="http://www.web2py.com/"><b><span>S</span>pencer<span>S</span></b>&trade;&nbsp;</a></div></td></tr><tr><td style="font-weight:bold;vertical-align:top;">menu</td><td style="vertical-align:top;">:</td><td><div><table><tr><td><div><table><tr><td><div>Home</div></td></tr><tr><td><div>False</div></td></tr><tr><td><div>/Spencers/default/index</div></td></tr><tr><td><div><table><tr><td><div>Catalogue</div></td></tr><tr><td><div>False</div></td></tr><tr><td><div>/Spencers/default/default/view_products</div></td></tr></table></div></td></tr><tr><td><div><table><tr><td><div>Billing</div></td></tr><tr><td><div>False</div></td></tr><tr><td><div>/Spencers/default/default/bills</div></td></tr></table></div></td></tr><tr><td><div><table><tr><td><div>Customers</div></td></tr><tr><td><div>False</div></td></tr><tr><td><div>/Spencers/default/default/view_customers</div></td></tr></table></div></td></tr><tr><td><div><table></table></div></td></tr></table></div></td></tr><tr><td><div><table><tr><td><div><span class="highlighted">web2py</span></div></td></tr><tr><td><div>False</div></td></tr><tr><td><div>http://web2py.com</div></td></tr><tr><td><div><table><tr><td><div><table><tr><td><div>My Sites</div></td></tr><tr><td><div>False</div></td></tr><tr><td><div>/admin/default/site</div></td></tr></table></div></td></tr><tr><td><div><table><tr><td><div>This App</div></td></tr><tr><td><div>False</div></td></tr><tr><td><div>/admin/default/design/Spencers</div></td></tr><tr><td><div>[(&lt;lazyT &#x27;Controller&#x27;&gt;, False, &#x27;/admin/default/edit/Spencers/controllers/default.py&#x27;), (&lt;lazyT &#x27;View&#x27;&gt;, False, &#x27;/admin/default/edit/Spencers/views/default/view_customers.html&#x27;), (&lt;lazyT &#x27;Layout&#x27;&gt;, False, &#x27;/admin/default/edit/Spencers/views/layout.html&#x27;), (&lt;lazyT &#x27;Stylesheet&#x27;&gt;, False, &#x27;/admin/default/edit/Spencers/static/css/web2py.css&#x27;), (&lt;lazyT &#x27;DB Model&#x27;&gt;, False, &#x27;/admin/default/edit/Spencers/models/db.py&#x27;), (&lt;lazyT &#x27;Menu Model&#x27;&gt;, False, &#x27;/admin/default/edit/Spencers/models/menu.py&#x27;), (&lt;lazyT &#x27;Database&#x27;&gt;, False, &#x27;/Spencers/appadmin/index&#x27;), (&lt;lazyT &#x27;Errors&#x27;&gt;, False, &#x27;/admin/default/errors/Spencers&#x27;), (&lt;lazyT &#x27;About&#x27;&gt;, False, &#x27;/admin/default/about/Spencers&#x27;)]</div></td></tr></table></div></td></tr><tr><td><div><table><tr><td><div>web2py.com</div></td></tr><tr><td><div>False</div></td></tr><tr><td><div>http://www.web2py.com</div></td></tr><tr><td><div>[(&lt;lazyT &#x27;Download&#x27;&gt;, False, &#x27;http://www.web2py.com/examples/default/download&#x27;), (&lt;lazyT &#x27;Support&#x27;&gt;, False, &#x27;http://www.web2py.com/examples/default/support&#x27;), (&lt;lazyT &#x27;Demo&#x27;&gt;, False, &#x27;http://web2py.com/demo_admin&#x27;), (&lt;lazyT &#x27;Quick Examples&#x27;&gt;, False, &#x27;http://web2py.com/examples/default/examples&#x27;), (&lt;lazyT &#x27;FAQ&#x27;&gt;, False, &#x27;http://web2py.com/AlterEgo&#x27;), (&lt;lazyT &#x27;Videos&#x27;&gt;, False, &#x27;http://www.web2py.com/examples/default/videos/&#x27;), (&lt;lazyT &#x27;Free Applications&#x27;&gt;, False, &#x27;http://web2py.com/appliances&#x27;), (&lt;lazyT &#x27;Plugins&#x27;&gt;, False, &#x27;http://web2py.com/plugins&#x27;), (&lt;lazyT &#x27;Layouts&#x27;&gt;, False, &#x27;http://web2py.com/layouts&#x27;), (&lt;lazyT &#x27;Recipes&#x27;&gt;, False, &#x27;http://web2pyslices.com/&#x27;), (&lt;lazyT &#x27;Semantic&#x27;&gt;, False, &#x27;http://web2py.com/semantic&#x27;)]</div></td></tr></table></div></td></tr><tr><td><div><table><tr><td><div>Documentation</div></td></tr><tr><td><div>False</div></td></tr><tr><td><div>http://www.web2py.com/book</div></td></tr><tr><td><div>[(&lt;lazyT &#x27;Preface&#x27;&gt;, False, &#x27;http://www.web2py.com/book/default/chapter/00&#x27;), (&lt;lazyT &#x27;Introduction&#x27;&gt;, False, &#x27;http://www.web2py.com/book/default/chapter/01&#x27;), (&lt;lazyT &#x27;Python&#x27;&gt;, False, &#x27;http://www.web2py.com/book/default/chapter/02&#x27;), (&lt;lazyT &#x27;Overview&#x27;&gt;, False, &#x27;http://www.web2py.com/book/default/chapter/03&#x27;), (&lt;lazyT &#x27;The Core&#x27;&gt;, False, &#x27;http://www.web2py.com/book/default/chapter/04&#x27;), (&lt;lazyT &#x27;The Views&#x27;&gt;, False, &#x27;http://www.web2py.com/book/default/chapter/05&#x27;), (&lt;lazyT &#x27;Database&#x27;&gt;, False, &#x27;http://www.web2py.com/book/default/chapter/06&#x27;), (&lt;lazyT &#x27;Forms and Validators&#x27;&gt;, False, &#x27;http://www.web2py.com/book/default/chapter/07&#x27;), (&lt;lazyT &#x27;Email and SMS&#x27;&gt;, False, &#x27;http://www.web2py.com/book/default/chapter/08&#x27;), (&lt;lazyT &#x27;Access Control&#x27;&gt;, False, &#x27;http://www.web2py.com/book/default/chapter/09&#x27;), (&lt;lazyT &#x27;Services&#x27;&gt;, False, &#x27;http://www.web2py.com/book/default/chapter/10&#x27;), (&lt;lazyT &#x27;Ajax Recipes&#x27;&gt;, False, &#x27;http://www.web2py.com/book/default/chapter/11&#x27;), (&lt;lazyT &#x27;Components and Plugins&#x27;&gt;, False, &#x27;http://www.web2py.com/book/default/chapter/12&#x27;), (&lt;lazyT &#x27;Deployment Recipes&#x27;&gt;, False, &#x27;http://www.web2py.com/book/default/chapter/13&#x27;), (&lt;lazyT &#x27;Other Recipes&#x27;&gt;, False, &#x27;http://www.web2py.com/book/default/chapter/14&#x27;), (&lt;lazyT &#x27;Buy this book&#x27;&gt;, False, &#x27;http://stores.lulu.com/web2py&#x27;)]</div></td></tr></table></div></td></tr><tr><td><div><table><tr><td><div>Community</div></td></tr><tr><td><div>False</div></td></tr><tr><td><div>None</div></td></tr><tr><td><div>[(&lt;lazyT &#x27;Groups&#x27;&gt;, False, &#x27;http://www.web2py.com/examples/default/usergroups&#x27;), (&lt;lazyT &#x27;Twitter&#x27;&gt;, False, &#x27;http://twitter.com/web2py&#x27;), (&lt;lazyT &#x27;Live Chat&#x27;&gt;, False, &#x27;http://webchat.freenode.net/?channels=web2py&#x27;)]</div></td></tr></table></div></td></tr><tr><td><div><table><tr><td><div>Plugins</div></td></tr><tr><td><div>False</div></td></tr><tr><td><div>None</div></td></tr><tr><td><div>[(&#x27;plugin_wiki&#x27;, False, &#x27;http://web2py.com/examples/default/download&#x27;), (&lt;lazyT &#x27;Other Plugins&#x27;&gt;, False, &#x27;http://web2py.com/plugins&#x27;), (&lt;lazyT &#x27;Layout Plugins&#x27;&gt;, False, &#x27;http://web2py.com/layouts&#x27;)]</div></td></tr></table></div></td></tr></table></div></td></tr></table></div></td></tr></table></div></td></tr><tr><td style="font-weight:bold;vertical-align:top;">meta</td><td style="vertical-align:top;">:</td><td><div><table><tr><td style="font-weight:bold;vertical-align:top;">author</td><td style="vertical-align:top;">:</td><td><div>Your Name &lt;you@example.com&gt;</div></td></tr><tr><td style="font-weight:bold;vertical-align:top;">description</td><td style="vertical-align:top;">:</td><td><div>a cool new app</div></td></tr><tr><td style="font-weight:bold;vertical-align:top;">generator</td><td style="vertical-align:top;">:</td><td><div>Web2py Web Framework</div></td></tr><tr><td style="font-weight:bold;vertical-align:top;">keywords</td><td style="vertical-align:top;">:</td><td><div>web2py, python, framework</div></td></tr></table></div></td></tr><tr><td style="font-weight:bold;vertical-align:top;">models_to_run</td><td style="vertical-align:top;">:</td><td><div><table><tr><td><div>^\\w+\\.py$</div></td></tr><tr><td><div>^default/\\w+\\.py$</div></td></tr><tr><td><div>^default/view_customers/\\w+\\.py$</div></td></tr></table></div></td></tr><tr><td style="font-weight:bold;vertical-align:top;">postprocessing</td><td style="vertical-align:top;">:</td><td><div><table></table></div></td></tr><tr><td style="font-weight:bold;vertical-align:top;">session_client</td><td style="vertical-align:top;">:</td><td><div>127.0.0.1</div></td></tr><tr><td style="font-weight:bold;vertical-align:top;">session_cookie_compression_level</td><td style="vertical-align:top;">:</td><td><div>None</div></td></tr><tr><td style="font-weight:bold;vertical-align:top;">session_cookie_expires</td><td style="vertical-align:top;">:</td><td><div>None</div></td></tr><tr><td style="font-weight:bold;vertical-align:top;">session_cookie_key</td><td style="vertical-align:top;">:</td><td><div>None</div></td></tr><tr><td style="font-weight:bold;vertical-align:top;">session_data_name</td><td style="vertical-align:top;">:</td><td><div>session_data_spencers</div></td></tr><tr><td style="font-weight:bold;vertical-align:top;">session_file</td><td style="vertical-align:top;">:</td><td><div>&lt;open file &#x27;/home/brat/web2py/applications/Spencers/sessions/127.0.0.1-7bc75820-0689-4290-9869-e3f03a0fd3d8&#x27;, mode &#x27;rb+&#x27; at 0xadb04650&gt;</div></td></tr><tr><td style="font-weight:bold;vertical-align:top;">session_filename</td><td style="vertical-align:top;">:</td><td><div>/home/brat/web2py/applications/Spencers/sessions/127.0.0.1-7bc75820-0689-4290-9869-e3f03a0fd3d8</div></td></tr><tr><td style="font-weight:bold;vertical-align:top;">session_hash</td><td style="vertical-align:top;">:</td><td><div>a535e6fa4b2ca7616da31b3fce92c586</div></td></tr><tr><td style="font-weight:bold;vertical-align:top;">session_id</td><td style="vertical-align:top;">:</td><td><div>127.0.0.1-7bc75820-0689-4290-9869-e3f03a0fd3d8</div></td></tr><tr><td style="font-weight:bold;vertical-align:top;">session_id_name</td><td style="vertical-align:top;">:</td><td><div>session_id_spencers</div></td></tr><tr><td style="font-weight:bold;vertical-align:top;">session_locked</td><td style="vertical-align:top;">:</td><td><div>True</div></td></tr><tr><td style="font-weight:bold;vertical-align:top;">session_masterapp</td><td style="vertical-align:top;">:</td><td><div>Spencers</div></td></tr><tr><td style="font-weight:bold;vertical-align:top;">session_new</td><td style="vertical-align:top;">:</td><td><div>False</div></td></tr><tr><td style="font-weight:bold;vertical-align:top;">session_storage_type</td><td style="vertical-align:top;">:</td><td><div>file</div></td></tr><tr><td style="font-weight:bold;vertical-align:top;">status</td><td style="vertical-align:top;">:</td><td><div>200</div></td></tr><tr><td style="font-weight:bold;vertical-align:top;">subtitle</td><td style="vertical-align:top;">:</td><td><div></div></td></tr><tr><td style="font-weight:bold;vertical-align:top;">title</td><td style="vertical-align:top;">:</td><td><div>Spencers</div></td></tr><tr><td style="font-weight:bold;vertical-align:top;">view</td><td style="vertical-align:top;">:</td><td><div>default/view_customers.html</div></td></tr></table></div>'
tRp258
sS'locals'
p259
(dp260
S'ul'
p261
S'<gluon.html.UL object>'
p262
sS'self'
p263
S'<gluon.html.MENU object>'
p264
sS'level'
p265
S'2'
sS'data'
p266
S"'a'"
p267
sS'item'
p268
S"'a'"
p269
sssS'traceback'
p270
S'Traceback (most recent call last):\n  File "/home/brat/web2py/gluon/restricted.py", line 217, in restricted\n    exec ccode in environment\n  File "/home/brat/web2py/applications/Spencers/views/default/view_customers.html", line 71, in <module>\n  File "/home/brat/web2py/gluon/globals.py", line 387, in write\n    self.body.write(xmlescape(data))\n  File "/home/brat/web2py/gluon/html.py", line 120, in xmlescape\n    return data.xml()\n  File "/home/brat/web2py/gluon/html.py", line 2482, in xml\n    return self.serialize(self.data, 0).xml()\n  File "/home/brat/web2py/gluon/html.py", line 2447, in serialize\n    li.append(self.serialize(item[3], level + 1))\n  File "/home/brat/web2py/gluon/html.py", line 2447, in serialize\n    li.append(self.serialize(item[3], level + 1))\n  File "/home/brat/web2py/gluon/html.py", line 2427, in serialize\n    (name, active, link) = item[:3]\nValueError: need more than 1 value to unpack\n'
p271
s.