(dp1
S'output'
p2
S"<type 'exceptions.AttributeError'> 'DAL' object has no attribute 'product'"
p3
sS'layer'
p4
S'/home/brat/web2py/applications/Spencers/controllers/default.py'
p5
sS'code'
p6
S'# -*- coding: utf-8 -*-\n# this file is released under public domain and you can use without limitations\n\n#########################################################################\n## This is a sample controller\n## - index is the default action of any application\n## - user is required for authentication and authorization\n## - download is for downloading files uploaded in the db (does streaming)\n## - call exposes all registered services (none by default)\n#########################################################################\n\n\nimport os\nimport uuid\nimport subprocess\nfrom appy.pod.renderer import Renderer\n     \ndef createReport():\n    persons = []\n    for person in db().select(db.CUSTOMERS.ALL):\n\t\tpersons.append(dict(cust_name=person.cust_name,email=person.mobile,address=person.email))\n    # Report creation\n    template_file = os.path.join(request.folder, \'template.odt\')\n    tmp_uuid = uuid.uuid4()\n    output_file_odt = "/home/brat/%s.odt"%tmp_uuid    \n    beingPaidForIt = True\n    renderer = Renderer(template_file, locals(), output_file_odt)\n    renderer.run()\n    """subprocess.Popen("libreoffice --headless --invisible --convert-to pdf %s --outdir %s "%(output_file_odt, "/var/tmp") ,shell=True)\n    while True:\n    if os.path.exists(output_file_pdf):\n    break\n    data = open(output_file_pdf, "rb").read()\n    for file in [output_file_odt, output_file_pdf]:\n    os.unlink(file)\n    response.headers[\'Content-Type\'] = \'application/pdf\'\n    response.headers[\'Content-Disposition\'] = \'attachment; filename=PersonsListing.pdf\'"""\n    return data \n\n\n\ndef index():\n    """\n    example action using the internationalization operator T and flash\n    rendered by views/default/index.html or views/generic.html\n\n    if you need a simple wiki simple replace the two lines below with:\n    return auth.wiki()\n    """\n    if auth.is_logged_in():\n        redirect(URL(\'onepage\'))\n    redirect(URL(\'user\'))\n\n\ndef user():\n    """\n    exposes:\n    http://..../[app]/default/user/login\n    http://..../[app]/default/user/logout\n    http://..../[app]/default/user/register\n    http://..../[app]/default/user/profile\n    http://..../[app]/default/user/retrieve_password\n    http://..../[app]/default/user/change_password\n    http://..../[app]/default/user/manage_users (requires membership in\n    use @auth.requires_login()\n        @auth.requires_membership(\'group name\')\n        @auth.requires_permission(\'read\',\'table name\',record_id)\n    to decorate functions that need access control\n    """\n    return dict(form=auth())\n\n@cache.action()\ndef download():\n    """\n    allows downloading of uploaded files\n    http://..../[app]/default/download/[filename]\n    """\n    return response.download(request, db)\n\n@auth.requires_login() \ndef onepage():\n    dealers=db(db.DEALERS).select(orderby=db.DEALERS.dealer_name)\n    products=db(db.PRODUCTS).select(orderby=db.PRODUCTS.item_name)\n    customers=db(db.CUSTOMERS).select(orderby=db.CUSTOMERS.cust_name)\n    return locals()\n\ndef edit_product():\n    product = db.product(request.args(0)) or redirect(URL(\'view_products\'))\n    form = crud.update(db.PRODUCTS,product,next=URL(\'view_one_product/[id]\'))\n\n@auth.requires_login() \ndef customers():    \n    return locals()\n\ndef view_one_dealer():\n    dealer=db.DEALERS(request.args(0))\n    return locals()\n\n\n\ndef email_invoice():\n    bill=db.BILLS(request.args(0))\n    context = dict(bill=bill)\n    message = response.render(\'invoice.html\', context)\n    x=mail.send(\'the.budhiraja@gmail.com\',\'Spencer\\\'s Bill {{=bill.id}} \',message=message)\n    if x:\n        redirect(URL(\'view_customers\'))\n    else:\n        redirect(URL(\'bills\'))\n    \n@auth.requires_login() \ndef products():\n    return locals()\n\ndef add_invoice():\n    new_invoice=crud.create(db.BILLS,next=\'add_item_to_bill/[id]\')\n    return locals()\n\ndef calc_bill():\n    bill=db.BILLS(request.args(0))\n    total=0\n    billitems=db.BILLITEMS.bill==request.args(0)\n    billitems=db(billitems)\n    billitems=billitems.select()\n    for i in billitems:\n        total+=(i.product.mrp* ( 100 - i.product.discount) / 100 * i.quantity)\n    net_total=total * 11/100 + total\n    bill.update_record(total=total,net_total=net_total)\n    redirect(URL(\'show_bill\',args=bill.id))\n\ndef bills():\n    message=""\n    message="Search Bill"\n    if len(request.args):\n        message=request.args(0)\n        l=message.split(\'_\')\n        message=""\n        for i in l:\n            message+=i+\' \'\n        message+=\'.Search again.\\n\'\n    bills=db(db.BILLS).select(orderby=db.BILLS.id)\n    form = SQLFORM.factory(Field(\'bill_id\',\'integer\',requires=IS_NOT_EMPTY()))\n    if form.process(formname="form").accepted:\n        redirect(URL(\'show_bill\', args=(form.vars.bill_id)))\n    elif form.errors:\n        response.flash=\'Please re-enter\'\n    return locals()\n\n\ndef show_bill():\n    billid=request.args(0)\n    bills=db.BILLS.id==request.args(0)\n    bills=db(bills)\n    bills=bills.select()\n    if len(list(bills))==0:\n        redirect(URL(\'bills\',args=\'Requested Bill Not Found\'))\n    bill=db.BILLS(request.args(0))\n    billitems=db.BILLITEMS.bill==request.args(0)\n    billitems=db(billitems)\n    billitems=billitems.select()\n    return locals()\n\ndef add_item_to_bill():\n    billid=request.args(0)\n    db.BILLITEMS.bill.default=request.args(0)\n    new_billitem=crud.create(db.BILLITEMS,next=URL(\'add_item_to_bill\',args=billid))\n    return locals()\n\n\n@auth.requires_login() \ndef dealers():\n    return locals()\n\n\ndef view_products():\n    message=""\n    message="Search a Product"\n    if len(request.args):\n        message=request.args(0)\n        l=message.split(\'_\')\n        message=""\n        for i in l:\n            message+=i+\' \'\n        message+=\'.Search again.\\n\'\n    products=db(db.PRODUCTS).select(orderby=db.PRODUCTS.item_name)\n    form1 = SQLFORM.factory(\n        Field(\'products\',requires=IS_IN_DB(db, \'PRODUCTS.id\', \'%(item_name)s\')))\n    if form1.process(formname="form_one").accepted:\n        redirect(URL(\'view_product\', args=(form1.vars.products)))\n    elif form1.errors:\n        response.flash = \'Product Not Found.Try Again.\'\n    form2 = SQLFORM.factory(\n        Field(\'product_name\',requires=IS_NOT_EMPTY()))\n    if form2.process(formname="form_two").accepted:\n        redirect(URL(\'searched_products\', args=(form2.vars.product_name)))\n    elif form2.errors:\n         response.flash = \'Sorry.Please,Try Again\'\n    return locals()\n\ndef searched_products():\n    name=request.args(0)\n    l=name.split(\'_\')\n    name2=""\n    for i in l:\n        name2+=i+\' \'\n    name2=name2[:-1]\n    form2 = SQLFORM.factory(\n        Field(\'product_name\',requires=IS_NOT_EMPTY(),default=name2))\n    if form2.process(formname="form_two").accepted:\n        redirect(URL(\'searched_products\', args=(form2.vars.product_name)))\n    query="SELECT * FROM PRODUCTS WHERE item_name LIKE \'%"+name2+"%\'"\n    products=db.executesql(query)\n    if len(products)<=0:\n        redirect(URL(\'view_products\',args="Product Not Found"))\n    return locals()\n\ndef view_customers():\n    message=""\n    message="Search a Customer"\n    if len(request.args):\n        message=request.args(0)\n        l=message.split(\'_\')\n        message=""\n        for i in l:\n            message+=i+\' \'\n        message+=\'.Search again.\\n\'\n    form1 = SQLFORM.factory(\n        Field(\'Customers\',requires=IS_IN_DB(db, \'CUSTOMERS.id\', \'%(cust_name)s\')))\n    if form1.process(formname="form_one").accepted:\n        redirect(URL(\'view_one_customer\', args=(form1.vars.customers)))\n    customers=db(db.CUSTOMERS).select(orderby=db.CUSTOMERS.cust_name)\n    customers=list(customers)\n    form2 = SQLFORM.factory(\n        Field(\'customer_name\',requires=IS_NOT_EMPTY()))\n    if form2.process(formname="form_two").accepted:\n        redirect(URL(\'searched_customers\', args=(form2.vars.customer_name)))\n    elif form2.errors:\n        response.flash = \'Customer Not Found.Try Again.\'\n    elif form2.errors:\n         response.flash = \'Sorry.Please,Try Again\'\n    return locals()\n\n\n\ndef searched_customers():    \n    name=request.args(0)\n    l=name.split(\'_\')\n    name2=""\n    for i in l:\n        name2+=i+\' \'\n    name2=name2[:-1]\n    form2 = SQLFORM.factory(\n        Field(\'customer_name\',requires=IS_NOT_EMPTY(),default=name2))\n    if form2.process(formname="form_two").accepted:\n        redirect(URL(\'searched_customers\', args=(form2.vars.customer_name)))\n    query="SELECT * FROM CUSTOMERS WHERE cust_name LIKE \'%"+name2+"%\'"\n    customers=db.executesql(query)\n    if len(customers)<=0:\n        redirect(URL(\'view_customers\',args="Customer Not Found"))\n    return locals()\n\n@auth.requires_login() \ndef add_customer():\n    new_customer = crud.create(db.CUSTOMERS, next=\'view_one_customer/[id]\',message="New Customer Created.")\n    return locals()\n\n@auth.requires_login() \ndef view_productsx():\n    products=db(db.PRODUCTS).select(orderby=db.PRODUCTS.item_name)\n    return locals()\n@auth.requires_login() \ndef add_product():\n    new_product = crud.create(db.PRODUCTS, next=\'view_product/[id]\',message="New Product Created")\n    return locals()\n\n@auth.requires_login() \ndef view_dealers():\n    dealers=db(db.DEALERS).select(orderby=db.DEALERS.dealer_name)\n    return locals()\n\n@auth.requires_login() \ndef add_dealer():\n    new_dealer = crud.create(db.DEALERS, next=\'view_dealers\')\n    return locals()\ndef view_product():\n    product=db.PRODUCTS(request.args(0))\n    return locals()\n\ndef view_one_customer():\n    if len(request.args)<1:\n        redirect(URL(\'view_customers\',message="No Arguments"))\n    customers=db.CUSTOMERS.id==request.args(0)\n    customers=db(customers)\n    customers=customers.select()\n    if len(list(customers))==0:\n        redirect(URL(\'view_customers\',args="Customer Not Found"))\n    bills=db.BILLS.customer==request.args(0)\n    bills=db(bills)\n    bills=bills.select()\n    customer_total=0\n    for i in bills:\n        if i.net_total!=None:\n            customer_total+=i.net_total\n    customer=db.CUSTOMERS(request.args(0))\n    return locals()\n    \ndef call():\n    """\n    exposes services. for example:\n    http://..../[app]/default/call/jsonrpc\n    decorate with @services.jsonrpc the functions to expose\n    supports xml, json, xmlrpc, jsonrpc, amfrpc, rss, csv\n    """\n    return service()\n\n\n@auth.requires_signature()\ndef data():\n    """\n    http://..../[app]/default/data/tables\n    http://..../[app]/default/data/create/[table]\n    http://..../[app]/default/data/read/[table]/[id]\n    http://..../[app]/default/data/update/[table]/[id]\n    http://..../[app]/default/data/delete/[table]/[id]\n    http://..../[app]/default/data/select/[table]\n    http://..../[app]/default/data/search/[table]\n    but URLs must be signed, i.e. linked with\n      A(\'table\',_href=URL(\'data/tables\',user_signature=True))\n    or with the signed load operator\n      LOAD(\'default\',\'data.load\',args=\'tables\',ajax=True,user_signature=True)\n    """\n    return dict(form=crud())\n\n\ndef gen_pdf():\n    if len(request.args)==0:\n        redirect(URL(\'bills\'))\n    bill=db.BILLS(request.args(0))\n    billitems=db.BILLITEMS.bill==1\n    billitems=db(billitems)\n    billitems=billitems.select()\n    html = response.render(\'default/invoice.html\', dict(bill=bill,billitems=billitems))\n    return plugin_appreport.REPORTPISA(html = html, title = \'my custom report using the plugin appreport\')\n\nresponse._vars=response._caller(edit_product)\n'
p7
sS'snapshot'
p8
(dp9
S'exception'
p10
(dp11
S'__hash__'
p12
S"<method-wrapper '__hash__' of exceptions.AttributeError object>"
p13
sS'__setattr__'
p14
S"<method-wrapper '__setattr__' of exceptions.AttributeError object>"
p15
sS'__reduce_ex__'
p16
S'<built-in method __reduce_ex__ of exceptions.AttributeError object>'
p17
sS'__getslice__'
p18
S"<method-wrapper '__getslice__' of exceptions.AttributeError object>"
p19
sS'__getitem__'
p20
S"<method-wrapper '__getitem__' of exceptions.AttributeError object>"
p21
sS'__setstate__'
p22
S'<built-in method __setstate__ of exceptions.AttributeError object>'
p23
sS'__reduce__'
p24
S'<built-in method __reduce__ of exceptions.AttributeError object>'
p25
sS'__str__'
p26
S"<method-wrapper '__str__' of exceptions.AttributeError object>"
p27
sS'__format__'
p28
S'<built-in method __format__ of exceptions.AttributeError object>'
p29
sS'__getattribute__'
p30
S"<method-wrapper '__getattribute__' of exceptions.AttributeError object>"
p31
sS'__class__'
p32
S"<type 'exceptions.AttributeError'>"
p33
sS'__unicode__'
p34
S'<built-in method __unicode__ of exceptions.AttributeError object>'
p35
sS'__delattr__'
p36
S"<method-wrapper '__delattr__' of exceptions.AttributeError object>"
p37
sS'__subclasshook__'
p38
S'<built-in method __subclasshook__ of type object>'
p39
sS'__repr__'
p40
S"<method-wrapper '__repr__' of exceptions.AttributeError object>"
p41
sS'args'
p42
S'("\'DAL\' object has no attribute \'product\'",)'
p43
sS'__dict__'
p44
S'{}'
p45
sS'__sizeof__'
p46
S'<built-in method __sizeof__ of exceptions.AttributeError object>'
p47
sS'__doc__'
p48
S"'Attribute not found.'"
p49
sS'__init__'
p50
S"<method-wrapper '__init__' of exceptions.AttributeError object>"
p51
sS'__new__'
p52
S'<built-in method __new__ of type object>'
p53
ssS'evalue'
p54
S"'DAL' object has no attribute 'product'"
p55
sS'request'
p56
cgluon.html
XML_unpickle
p57
(S's\x01Y\x00\x00<div><table><tr><td style="font-weight:bold;vertical-align:top;">ajax</td><td style="vertical-align:top;">:</td><td><div>False</div></td></tr><tr><td style="font-weight:bold;vertical-align:top;">application</td><td style="vertical-align:top;">:</td><td><div>Spencers</div></td></tr><tr><td style="font-weight:bold;vertical-align:top;">args</td><td style="vertical-align:top;">:</td><td><div><table><tr><td><div>1</div></td></tr></table></div></td></tr><tr><td style="font-weight:bold;vertical-align:top;">cid</td><td style="vertical-align:top;">:</td><td><div>None</div></td></tr><tr><td style="font-weight:bold;vertical-align:top;">client</td><td style="vertical-align:top;">:</td><td><div>127.0.0.1</div></td></tr><tr><td style="font-weight:bold;vertical-align:top;">controller</td><td style="vertical-align:top;">:</td><td><div>default</div></td></tr><tr><td style="font-weight:bold;vertical-align:top;">cookies</td><td style="vertical-align:top;">:</td><td><div><table><tr><td style="font-weight:bold;vertical-align:top;">session_id_admin</td><td style="vertical-align:top;">:</td><td><div>127.0.0.1-bf2a91df-62d7-45d8-85a1-079904ec1514<table><tr><td style="font-weight:bold;vertical-align:top;">comment</td><td style="vertical-align:top;">:</td><td><div></div></td></tr><tr><td style="font-weight:bold;vertical-align:top;">domain</td><td style="vertical-align:top;">:</td><td><div></div></td></tr><tr><td style="font-weight:bold;vertical-align:top;">expires</td><td style="vertical-align:top;">:</td><td><div></div></td></tr><tr><td style="font-weight:bold;vertical-align:top;">httponly</td><td style="vertical-align:top;">:</td><td><div></div></td></tr><tr><td style="font-weight:bold;vertical-align:top;">max-age</td><td style="vertical-align:top;">:</td><td><div></div></td></tr><tr><td style="font-weight:bold;vertical-align:top;">path</td><td style="vertical-align:top;">:</td><td><div></div></td></tr><tr><td style="font-weight:bold;vertical-align:top;">secure</td><td style="vertical-align:top;">:</td><td><div></div></td></tr><tr><td style="font-weight:bold;vertical-align:top;">version</td><td style="vertical-align:top;">:</td><td><div></div></td></tr></table></div></td></tr><tr><td style="font-weight:bold;vertical-align:top;">session_id_spencers</td><td style="vertical-align:top;">:</td><td><div>127.0.0.1-786647c6-1db3-4d45-849b-48e34046e08d<table><tr><td style="font-weight:bold;vertical-align:top;">comment</td><td style="vertical-align:top;">:</td><td><div></div></td></tr><tr><td style="font-weight:bold;vertical-align:top;">domain</td><td style="vertical-align:top;">:</td><td><div></div></td></tr><tr><td style="font-weight:bold;vertical-align:top;">expires</td><td style="vertical-align:top;">:</td><td><div></div></td></tr><tr><td style="font-weight:bold;vertical-align:top;">httponly</td><td style="vertical-align:top;">:</td><td><div></div></td></tr><tr><td style="font-weight:bold;vertical-align:top;">max-age</td><td style="vertical-align:top;">:</td><td><div></div></td></tr><tr><td style="font-weight:bold;vertical-align:top;">path</td><td style="vertical-align:top;">:</td><td><div></div></td></tr><tr><td style="font-weight:bold;vertical-align:top;">secure</td><td style="vertical-align:top;">:</td><td><div></div></td></tr><tr><td style="font-weight:bold;vertical-align:top;">version</td><td style="vertical-align:top;">:</td><td><div></div></td></tr></table></div></td></tr><tr><td style="font-weight:bold;vertical-align:top;">session_id_welcome</td><td style="vertical-align:top;">:</td><td><div>127.0.0.1-9ebd3452-e835-406f-a3be-82489e81833a<table><tr><td style="font-weight:bold;vertical-align:top;">comment</td><td style="vertical-align:top;">:</td><td><div></div></td></tr><tr><td style="font-weight:bold;vertical-align:top;">domain</td><td style="vertical-align:top;">:</td><td><div></div></td></tr><tr><td style="font-weight:bold;vertical-align:top;">expires</td><td style="vertical-align:top;">:</td><td><div></div></td></tr><tr><td style="font-weight:bold;vertical-align:top;">httponly</td><td style="vertical-align:top;">:</td><td><div></div></td></tr><tr><td style="font-weight:bold;vertical-align:top;">max-age</td><td style="vertical-align:top;">:</td><td><div></div></td></tr><tr><td style="font-weight:bold;vertical-align:top;">path</td><td style="vertical-align:top;">:</td><td><div></div></td></tr><tr><td style="font-weight:bold;vertical-align:top;">secure</td><td style="vertical-align:top;">:</td><td><div></div></td></tr><tr><td style="font-weight:bold;vertical-align:top;">version</td><td style="vertical-align:top;">:</td><td><div></div></td></tr></table></div></td></tr></table></div></td></tr><tr><td style="font-weight:bold;vertical-align:top;">env</td><td style="vertical-align:top;">:</td><td><div><table><tr><td style="font-weight:bold;vertical-align:top;">HTTP_ACCEPT</td><td style="vertical-align:top;">:</td><td><div>text/html,application/xhtml+xml,application/xml;q=0.9,*/*;q=0.8</div></td></tr><tr><td style="font-weight:bold;vertical-align:top;">HTTP_ACCEPT_ENCODING</td><td style="vertical-align:top;">:</td><td><div>gzip, deflate</div></td></tr><tr><td style="font-weight:bold;vertical-align:top;">HTTP_ACCEPT_LANGUAGE</td><td style="vertical-align:top;">:</td><td><div>en-US,en;q=0.5</div></td></tr><tr><td style="font-weight:bold;vertical-align:top;">HTTP_CONNECTION</td><td style="vertical-align:top;">:</td><td><div>keep-alive</div></td></tr><tr><td style="font-weight:bold;vertical-align:top;">HTTP_COOKIE</td><td style="vertical-align:top;">:</td><td><div>session_id_spencers=127.0.0.1-786647c6-1db3-4d45-849b-48e34046e08d; session_id_welcome=127.0.0.1-9ebd3452-e835-406f-a3be-82489e81833a; session_id_admin=127.0.0.1-bf2a91df-62d7-45d8-85a1-079904ec1514</div></td></tr><tr><td style="font-weight:bold;vertical-align:top;">HTTP_HOST</td><td style="vertical-align:top;">:</td><td><div>127.0.0.1:8000</div></td></tr><tr><td style="font-weight:bold;vertical-align:top;">HTTP_USER_AGENT</td><td style="vertical-align:top;">:</td><td><div>Mozilla/5.0 (X11; Ubuntu; Linux i686; rv:24.0) Gecko/20100101 Firefox/24.0</div></td></tr><tr><td style="font-weight:bold;vertical-align:top;">PATH_INFO</td><td style="vertical-align:top;">:</td><td><div>/Spencers/default/edit_product/1</div></td></tr><tr><td style="font-weight:bold;vertical-align:top;">QUERY_STRING</td><td style="vertical-align:top;">:</td><td><div></div></td></tr><tr><td style="font-weight:bold;vertical-align:top;">REMOTE_ADDR</td><td style="vertical-align:top;">:</td><td><div>127.0.0.1</div></td></tr><tr><td style="font-weight:bold;vertical-align:top;">REMOTE_PORT</td><td style="vertical-align:top;">:</td><td><div>44128</div></td></tr><tr><td style="font-weight:bold;vertical-align:top;">REQUEST_METHOD</td><td style="vertical-align:top;">:</td><td><div>GET</div></td></tr><tr><td style="font-weight:bold;vertical-align:top;">SCRIPT_NAME</td><td style="vertical-align:top;">:</td><td><div></div></td></tr><tr><td style="font-weight:bold;vertical-align:top;">SERVER_NAME</td><td style="vertical-align:top;">:</td><td><div>ubuntu</div></td></tr><tr><td style="font-weight:bold;vertical-align:top;">SERVER_PORT</td><td style="vertical-align:top;">:</td><td><div>8000</div></td></tr><tr><td style="font-weight:bold;vertical-align:top;">SERVER_PROTOCOL</td><td style="vertical-align:top;">:</td><td><div>HTTP/1.1</div></td></tr><tr><td style="font-weight:bold;vertical-align:top;">SERVER_SOFTWARE</td><td style="vertical-align:top;">:</td><td><div>Rocket 1.2.6</div></td></tr><tr><td style="font-weight:bold;vertical-align:top;">app_folders</td><td style="vertical-align:top;">:</td><td><div>set([&#x27;/home/brat/web2py/applications/Intro2DB/&#x27;, &#x27;/home/brat/web2py/applications/admin/&#x27;, &#x27;/home/brat/web2py/applications/welcome/&#x27;, &#x27;/home/brat/web2py/applications/Spencers/&#x27;])</div></td></tr><tr><td style="font-weight:bold;vertical-align:top;">applications_parent</td><td style="vertical-align:top;">:</td><td><div>/home/brat/web2py</div></td></tr><tr><td style="font-weight:bold;vertical-align:top;">cmd_args</td><td style="vertical-align:top;">:</td><td><div><table></table></div></td></tr><tr><td style="font-weight:bold;vertical-align:top;">cmd_options</td><td style="vertical-align:top;">:</td><td><div>&lt;Values at 0x8f248ec: {&#x27;verbose&#x27;: False, &#x27;ip&#x27;: &#x27;127.0.0.1&#x27;, &#x27;debuglevel&#x27;: 30, &#x27;with_scheduler&#x27;: False, &#x27;ips&#x27;: [&#x27;127.0.1.1&#x27;], &#x27;shutdown_timeout&#x27;: 5, &#x27;taskbar&#x27;: False, &#x27;with_coverage&#x27;: False, &#x27;port&#x27;: 8000, &#x27;maxthreads&#x27;: None, &#x27;softcron&#x27;: False, &#x27;server_name&#x27;: &#x27;ubuntu&#x27;, &#x27;bpython&#x27;: False, &#x27;nogui&#x27;: True, &#x27;pid_filename&#x27;: &#x27;httpserver.pid&#x27;, &#x27;extcron&#x27;: False, &#x27;runcron&#x27;: False, &#x27;run_system_tests&#x27;: False, &#x27;test&#x27;: None, &#x27;folder&#x27;: &#x27;/home/brat/web2py&#x27;, &#x27;config&#x27;: &#x27;&#x27;, &#x27;import_models&#x27;: False, &#x27;winservice&#x27;: &#x27;&#x27;, &#x27;shell&#x27;: None, &#x27;run&#x27;: &#x27;&#x27;, &#x27;log_filename&#x27;: &#x27;httpserver.log&#x27;, &#x27;profiler_dir&#x27;: None, &#x27;args&#x27;: [&#x27;&#x27;], &#x27;socket_timeout&#x27;: 5, &#x27;ssl_ca_certificate&#x27;: None, &#x27;scheduler&#x27;: None, &#x27;interfaces&#x27;: None, &#x27;ssl_private_key&#x27;: &#x27;&#x27;, &#x27;scheduler_groups&#x27;: None, &#x27;password&#x27;: &#x27;1234&#x27;, &#x27;request_queue_size&#x27;: 5, &#x27;ssl_certificate&#x27;: &#x27;&#x27;, &#x27;cronjob&#x27;: False, &#x27;numthreads&#x27;: None, &#x27;quiet&#x27;: False, &#x27;minthreads&#x27;: None, &#x27;timeout&#x27;: 10, &#x27;plain&#x27;: False, &#x27;nobanner&#x27;: False}&gt;</div></td></tr><tr><td style="font-weight:bold;vertical-align:top;">db_sessions</td><td style="vertical-align:top;">:</td><td><div>set([])</div></td></tr><tr><td style="font-weight:bold;vertical-align:top;">debugging</td><td style="vertical-align:top;">:</td><td><div>True</div></td></tr><tr><td style="font-weight:bold;vertical-align:top;">gluon_parent</td><td style="vertical-align:top;">:</td><td><div>/home/brat/web2py</div></td></tr><tr><td style="font-weight:bold;vertical-align:top;">http_accept</td><td style="vertical-align:top;">:</td><td><div>text/html,application/xhtml+xml,application/xml;q=0.9,*/*;q=0.8</div></td></tr><tr><td style="font-weight:bold;vertical-align:top;">http_accept_encoding</td><td style="vertical-align:top;">:</td><td><div>gzip, deflate</div></td></tr><tr><td style="font-weight:bold;vertical-align:top;">http_accept_language</td><td style="vertical-align:top;">:</td><td><div>en-US,en;q=0.5</div></td></tr><tr><td style="font-weight:bold;vertical-align:top;">http_connection</td><td style="vertical-align:top;">:</td><td><div>keep-alive</div></td></tr><tr><td style="font-weight:bold;vertical-align:top;">http_cookie</td><td style="vertical-align:top;">:</td><td><div>session_id_spencers=127.0.0.1-786647c6-1db3-4d45-849b-48e34046e08d; session_id_welcome=127.0.0.1-9ebd3452-e835-406f-a3be-82489e81833a; session_id_admin=127.0.0.1-bf2a91df-62d7-45d8-85a1-079904ec1514</div></td></tr><tr><td style="font-weight:bold;vertical-align:top;">http_host</td><td style="vertical-align:top;">:</td><td><div>127.0.0.1:8000</div></td></tr><tr><td style="font-weight:bold;vertical-align:top;">http_user_agent</td><td style="vertical-align:top;">:</td><td><div>Mozilla/5.0 (X11; Ubuntu; Linux i686; rv:24.0) Gecko/20100101 Firefox/24.0</div></td></tr><tr><td style="font-weight:bold;vertical-align:top;">is_jython</td><td style="vertical-align:top;">:</td><td><div>False</div></td></tr><tr><td style="font-weight:bold;vertical-align:top;">is_pypy</td><td style="vertical-align:top;">:</td><td><div>False</div></td></tr><tr><td style="font-weight:bold;vertical-align:top;">is_source</td><td style="vertical-align:top;">:</td><td><div>True</div></td></tr><tr><td style="font-weight:bold;vertical-align:top;">local_hosts</td><td style="vertical-align:top;">:</td><td><div><table><tr><td><div>ubuntu.ubuntu-domain</div></td></tr><tr><td><div>::ffff:127.0.0.1</div></td></tr><tr><td><div>::1</div></td></tr><tr><td><div>ubuntu</div></td></tr><tr><td><div>127.0.1.1</div></td></tr><tr><td><div>127.0.0.1</div></td></tr></table></div></td></tr><tr><td style="font-weight:bold;vertical-align:top;">path_info</td><td style="vertical-align:top;">:</td><td><div>/Spencers/default/edit_product/1</div></td></tr><tr><td style="font-weight:bold;vertical-align:top;">query_string</td><td style="vertical-align:top;">:</td><td><div></div></td></tr><tr><td style="font-weight:bold;vertical-align:top;">remote_addr</td><td style="vertical-align:top;">:</td><td><div>127.0.0.1</div></td></tr><tr><td style="font-weight:bold;vertical-align:top;">remote_port</td><td style="vertical-align:top;">:</td><td><div>44128</div></td></tr><tr><td style="font-weight:bold;vertical-align:top;">request_method</td><td style="vertical-align:top;">:</td><td><div>GET</div></td></tr><tr><td style="font-weight:bold;vertical-align:top;">request_uri</td><td style="vertical-align:top;">:</td><td><div>/Spencers/default/edit_product/1</div></td></tr><tr><td style="font-weight:bold;vertical-align:top;">script_name</td><td style="vertical-align:top;">:</td><td><div></div></td></tr><tr><td style="font-weight:bold;vertical-align:top;">server_name</td><td style="vertical-align:top;">:</td><td><div>ubuntu</div></td></tr><tr><td style="font-weight:bold;vertical-align:top;">server_port</td><td style="vertical-align:top;">:</td><td><div>8000</div></td></tr><tr><td style="font-weight:bold;vertical-align:top;">server_protocol</td><td style="vertical-align:top;">:</td><td><div>HTTP/1.1</div></td></tr><tr><td style="font-weight:bold;vertical-align:top;">server_software</td><td style="vertical-align:top;">:</td><td><div>Rocket 1.2.6</div></td></tr><tr><td style="font-weight:bold;vertical-align:top;">web2py_path</td><td style="vertical-align:top;">:</td><td><div>/home/brat/web2py</div></td></tr><tr><td style="font-weight:bold;vertical-align:top;">web2py_version</td><td style="vertical-align:top;">:</td><td><div>2.6.3-stable+timestamp.2013.09.15.17.01.20</div></td></tr><tr><td style="font-weight:bold;vertical-align:top;">wsgi.errors</td><td style="vertical-align:top;">:</td><td><div>&lt;open file &#x27;&lt;stderr&gt;&#x27;, mode &#x27;w&#x27; at 0xb73440d0&gt;</div></td></tr><tr><td style="font-weight:bold;vertical-align:top;">wsgi.file_wrapper</td><td style="vertical-align:top;">:</td><td><div>&lt;class wsgiref.util.FileWrapper at 0x8ed9e9c&gt;</div></td></tr><tr><td style="font-weight:bold;vertical-align:top;">wsgi.input</td><td style="vertical-align:top;">:</td><td><div>&lt;socket._fileobject object at 0xad7baeac&gt;</div></td></tr><tr><td style="font-weight:bold;vertical-align:top;">wsgi.multiprocess</td><td style="vertical-align:top;">:</td><td><div>False</div></td></tr><tr><td style="font-weight:bold;vertical-align:top;">wsgi.multithread</td><td style="vertical-align:top;">:</td><td><div>True</div></td></tr><tr><td style="font-weight:bold;vertical-align:top;">wsgi.run_once</td><td style="vertical-align:top;">:</td><td><div>False</div></td></tr><tr><td style="font-weight:bold;vertical-align:top;">wsgi.url_scheme</td><td style="vertical-align:top;">:</td><td><div>http</div></td></tr><tr><td style="font-weight:bold;vertical-align:top;">wsgi.version</td><td style="vertical-align:top;">:</td><td><div><table><tr><td><div>1</div></td></tr><tr><td><div>0</div></td></tr></table></div></td></tr><tr><td style="font-weight:bold;vertical-align:top;">wsgi_errors</td><td style="vertical-align:top;">:</td><td><div>&lt;open file &#x27;&lt;stderr&gt;&#x27;, mode &#x27;w&#x27; at 0xb73440d0&gt;</div></td></tr><tr><td style="font-weight:bold;vertical-align:top;">wsgi_file_wrapper</td><td style="vertical-align:top;">:</td><td><div>&lt;class wsgiref.util.FileWrapper at 0x8ed9e9c&gt;</div></td></tr><tr><td style="font-weight:bold;vertical-align:top;">wsgi_input</td><td style="vertical-align:top;">:</td><td><div>&lt;socket._fileobject object at 0xad7baeac&gt;</div></td></tr><tr><td style="font-weight:bold;vertical-align:top;">wsgi_multiprocess</td><td style="vertical-align:top;">:</td><td><div>False</div></td></tr><tr><td style="font-weight:bold;vertical-align:top;">wsgi_multithread</td><td style="vertical-align:top;">:</td><td><div>True</div></td></tr><tr><td style="font-weight:bold;vertical-align:top;">wsgi_run_once</td><td style="vertical-align:top;">:</td><td><div>False</div></td></tr><tr><td style="font-weight:bold;vertical-align:top;">wsgi_url_scheme</td><td style="vertical-align:top;">:</td><td><div>http</div></td></tr><tr><td style="font-weight:bold;vertical-align:top;">wsgi_version</td><td style="vertical-align:top;">:</td><td><div><table><tr><td><div>1</div></td></tr><tr><td><div>0</div></td></tr></table></div></td></tr></table></div></td></tr><tr><td style="font-weight:bold;vertical-align:top;">extension</td><td style="vertical-align:top;">:</td><td><div>html</div></td></tr><tr><td style="font-weight:bold;vertical-align:top;">folder</td><td style="vertical-align:top;">:</td><td><div>/home/brat/web2py/applications/Spencers/</div></td></tr><tr><td style="font-weight:bold;vertical-align:top;">function</td><td style="vertical-align:top;">:</td><td><div>edit_product</div></td></tr><tr><td style="font-weight:bold;vertical-align:top;">global_settings</td><td style="vertical-align:top;">:</td><td><div><table><tr><td style="font-weight:bold;vertical-align:top;">app_folders</td><td style="vertical-align:top;">:</td><td><div>set([&#x27;/home/brat/web2py/applications/Intro2DB/&#x27;, &#x27;/home/brat/web2py/applications/admin/&#x27;, &#x27;/home/brat/web2py/applications/welcome/&#x27;, &#x27;/home/brat/web2py/applications/Spencers/&#x27;])</div></td></tr><tr><td style="font-weight:bold;vertical-align:top;">applications_parent</td><td style="vertical-align:top;">:</td><td><div>/home/brat/web2py</div></td></tr><tr><td style="font-weight:bold;vertical-align:top;">cmd_args</td><td style="vertical-align:top;">:</td><td><div><table></table></div></td></tr><tr><td style="font-weight:bold;vertical-align:top;">cmd_options</td><td style="vertical-align:top;">:</td><td><div>&lt;Values at 0x8f248ec: {&#x27;verbose&#x27;: False, &#x27;ip&#x27;: &#x27;127.0.0.1&#x27;, &#x27;debuglevel&#x27;: 30, &#x27;with_scheduler&#x27;: False, &#x27;ips&#x27;: [&#x27;127.0.1.1&#x27;], &#x27;shutdown_timeout&#x27;: 5, &#x27;taskbar&#x27;: False, &#x27;with_coverage&#x27;: False, &#x27;port&#x27;: 8000, &#x27;maxthreads&#x27;: None, &#x27;softcron&#x27;: False, &#x27;server_name&#x27;: &#x27;ubuntu&#x27;, &#x27;bpython&#x27;: False, &#x27;nogui&#x27;: True, &#x27;pid_filename&#x27;: &#x27;httpserver.pid&#x27;, &#x27;extcron&#x27;: False, &#x27;runcron&#x27;: False, &#x27;run_system_tests&#x27;: False, &#x27;test&#x27;: None, &#x27;folder&#x27;: &#x27;/home/brat/web2py&#x27;, &#x27;config&#x27;: &#x27;&#x27;, &#x27;import_models&#x27;: False, &#x27;winservice&#x27;: &#x27;&#x27;, &#x27;shell&#x27;: None, &#x27;run&#x27;: &#x27;&#x27;, &#x27;log_filename&#x27;: &#x27;httpserver.log&#x27;, &#x27;profiler_dir&#x27;: None, &#x27;args&#x27;: [&#x27;&#x27;], &#x27;socket_timeout&#x27;: 5, &#x27;ssl_ca_certificate&#x27;: None, &#x27;scheduler&#x27;: None, &#x27;interfaces&#x27;: None, &#x27;ssl_private_key&#x27;: &#x27;&#x27;, &#x27;scheduler_groups&#x27;: None, &#x27;password&#x27;: &#x27;1234&#x27;, &#x27;request_queue_size&#x27;: 5, &#x27;ssl_certificate&#x27;: &#x27;&#x27;, &#x27;cronjob&#x27;: False, &#x27;numthreads&#x27;: None, &#x27;quiet&#x27;: False, &#x27;minthreads&#x27;: None, &#x27;timeout&#x27;: 10, &#x27;plain&#x27;: False, &#x27;nobanner&#x27;: False}&gt;</div></td></tr><tr><td style="font-weight:bold;vertical-align:top;">db_sessions</td><td style="vertical-align:top;">:</td><td><div>set([])</div></td></tr><tr><td style="font-weight:bold;vertical-align:top;">debugging</td><td style="vertical-align:top;">:</td><td><div>True</div></td></tr><tr><td style="font-weight:bold;vertical-align:top;">gluon_parent</td><td style="vertical-align:top;">:</td><td><div>/home/brat/web2py</div></td></tr><tr><td style="font-weight:bold;vertical-align:top;">is_jython</td><td style="vertical-align:top;">:</td><td><div>False</div></td></tr><tr><td style="font-weight:bold;vertical-align:top;">is_pypy</td><td style="vertical-align:top;">:</td><td><div>False</div></td></tr><tr><td style="font-weight:bold;vertical-align:top;">is_source</td><td style="vertical-align:top;">:</td><td><div>True</div></td></tr><tr><td style="font-weight:bold;vertical-align:top;">local_hosts</td><td style="vertical-align:top;">:</td><td><div><table><tr><td><div>ubuntu.ubuntu-domain</div></td></tr><tr><td><div>::ffff:127.0.0.1</div></td></tr><tr><td><div>::1</div></td></tr><tr><td><div>ubuntu</div></td></tr><tr><td><div>127.0.1.1</div></td></tr><tr><td><div>127.0.0.1</div></td></tr></table></div></td></tr><tr><td style="font-weight:bold;vertical-align:top;">web2py_version</td><td style="vertical-align:top;">:</td><td><div>2.6.3-stable+timestamp.2013.09.15.17.01.20</div></td></tr></table></div></td></tr><tr><td style="font-weight:bold;vertical-align:top;">is_https</td><td style="vertical-align:top;">:</td><td><div>False</div></td></tr><tr><td style="font-weight:bold;vertical-align:top;">is_local</td><td style="vertical-align:top;">:</td><td><div>True</div></td></tr><tr><td style="font-weight:bold;vertical-align:top;">is_restful</td><td style="vertical-align:top;">:</td><td><div>False</div></td></tr><tr><td style="font-weight:bold;vertical-align:top;">now</td><td style="vertical-align:top;">:</td><td><div>datetime.datetime(2013, 10, 27, 2, 41, 42, 533388)</div></td></tr><tr><td style="font-weight:bold;vertical-align:top;">raw_args</td><td style="vertical-align:top;">:</td><td><div>1</div></td></tr><tr><td style="font-weight:bold;vertical-align:top;">raw_extension</td><td style="vertical-align:top;">:</td><td><div>None</div></td></tr><tr><td style="font-weight:bold;vertical-align:top;">url</td><td style="vertical-align:top;">:</td><td><div>/Spencers/default/edit_product/1</div></td></tr><tr><td style="font-weight:bold;vertical-align:top;">utcnow</td><td style="vertical-align:top;">:</td><td><div>datetime.datetime(2013, 10, 26, 21, 11, 42, 533421)</div></td></tr><tr><td style="font-weight:bold;vertical-align:top;">uuid</td><td style="vertical-align:top;">:</td><td><div>Spencers/127.0.0.1.2013-10-27.02-41-42.072756a3-ec6e-4812-9074-823680a271ae</div></td></tr><tr><td style="font-weight:bold;vertical-align:top;">wsgi</td><td style="vertical-align:top;">:</td><td><div>&lt;gluon.main.LazyWSGI object at 0xadc69bec&gt;</div></td></tr></table></div>'
tRp58
sS'frames'
p59
(lp60
(dp61
S'file'
p62
S'/home/brat/web2py/gluon/restricted.py'
p63
sS'dump'
p64
(dp65
S'environment'
p66
S"{'A': <class 'gluon.html.A'>, 'ANY_OF': <class 'gluon.validators.ANY_OF'>, 'Auth': <class 'gluon.tools.Auth'>, 'B': <class 'gluon.html.B'>, 'BEAUTIFY': <class 'gluon.html.BEAUTIFY'>, 'BODY': <class 'gluon.html.BODY'>, 'BR': <class 'gluon.html.BR'>, 'BUTTON': <class 'gluon.html.BUTTON'>, 'CAT': <class 'gluon.html.CAT'>, 'CENTER': <class 'gluon.html.CENTER'>, ...}"
p67
sS'ccode'
p68
S'<code object <module> at 0xae209530, file "/home...ations/Spencers/controllers/default.py", line 13>'
p69
ssS'lnum'
p70
I217
sS'lines'
p71
(dp72
I212
S'    try:'
p73
sI213
S'        if isinstance(code, types.CodeType):'
p74
sI214
S'            ccode = code'
p75
sI215
S'        else:'
p76
sI216
S'            ccode = compile2(code, layer)'
p77
sI217
S'        exec ccode in environment'
p78
sI218
S'    except HTTP:'
p79
sI219
S'        raise'
p80
sI220
S'    except RestrictedError:'
p81
sI221
S'        # do not encapsulate (obfuscate) the original RestrictedError'
p82
ssS'call'
p83
S"(code='# -*- coding: utf-8 -*-\\n# this file is released ...)\\n\\nresponse._vars=response._caller(edit_product)\\n', environment={'A': <class 'gluon.html.A'>, 'ANY_OF': <class 'gluon.validators.ANY_OF'>, 'Auth': <class 'gluon.tools.Auth'>, 'B': <class 'gluon.html.B'>, 'BEAUTIFY': <class 'gluon.html.BEAUTIFY'>, 'BODY': <class 'gluon.html.BODY'>, 'BR': <class 'gluon.html.BR'>, 'BUTTON': <class 'gluon.html.BUTTON'>, 'CAT': <class 'gluon.html.CAT'>, 'CENTER': <class 'gluon.html.CENTER'>, ...}, layer='/home/brat/web2py/applications/Spencers/controllers/default.py')"
p84
sS'func'
p85
S'restricted'
p86
sa(dp87
g62
S'/home/brat/web2py/applications/Spencers/controllers/default.py'
p88
sg64
(dp89
sg70
I345
sg71
(dp90
I334
S''
sI335
S'def gen_pdf():'
p91
sI336
S'    if len(request.args)==0:'
p92
sI337
S"        redirect(URL('bills'))"
p93
sI338
S'    bill=db.BILLS(request.args(0))'
p94
sI339
S'    billitems=db.BILLITEMS.bill==1'
p95
sI340
S'    billitems=db(billitems)'
p96
sI341
S'    billitems=billitems.select()'
p97
sI342
S"    html = response.render('default/invoice.html', dict(bill=bill,billitems=billitems))"
p98
sI343
S"    return plugin_appreport.REPORTPISA(html = html, title = 'my custom report using the plugin appreport')"
p99
ssg83
S'()'
p100
sg85
S'<module>'
p101
sa(dp102
g62
S'/home/brat/web2py/gluon/globals.py'
p103
sg64
(dp104
S'self'
p105
S'undefined'
p106
sS'f'
S'<function edit_product>'
p107
ssg70
I378
sg71
(dp108
I373
S'        self.menu = []             # used by the default view layout'
p109
sI374
S'        self.files = []            # used by web2py_ajax.html'
p110
sI375
S'        self.generic_patterns = []  # patterns to allow generic views'
p111
sI376
S"        self.delimiters = ('{{', '}}')"
p112
sI377
S'        self._vars = None'
p113
sI378
S'        self._caller = lambda f: f()'
p114
sI379
S'        self._view_environment = None'
p115
sI380
S'        self._custom_commit = None'
p116
sI381
S'        self._custom_rollback = None'
p117
sI382
S''
ssg83
S'(f=<function edit_product>)'
p118
sg85
S'<lambda>'
p119
sa(dp120
g62
S'/home/brat/web2py/applications/Spencers/controllers/default.py'
p121
sg64
(dp122
S'global URL'
p123
S'<function URL>'
p124
sS'product'
p125
g106
sS'global request'
p126
S"<Storage {'_vars': None, 'function': 'edit_produ...er': '/home/brat/web2py/applications/Spencers/'}>"
p127
sS'db.product'
p128
g106
sS'request.args'
p129
S"['1']"
p130
sS'global redirect'
p131
S'<function redirect>'
p132
sS'global db'
p133
S'<DAL uri="mysql:******@localhost/phase5">'
p134
ssg70
I88
sg71
(dp135
I83
S'    products=db(db.PRODUCTS).select(orderby=db.PRODUCTS.item_name)'
p136
sI84
S'    customers=db(db.CUSTOMERS).select(orderby=db.CUSTOMERS.cust_name)'
p137
sI85
S'    return locals()'
p138
sI86
S''
sI87
S'def edit_product():'
p139
sI88
S"    product = db.product(request.args(0)) or redirect(URL('view_products'))"
p140
sI89
S"    form = crud.update(db.PRODUCTS,product,next=URL('view_one_product/[id]'))"
p141
sI90
S''
sI91
S'@auth.requires_login()'
p142
sI92
S'def customers():'
p143
ssg83
S'()'
p144
sg85
S'edit_product'
p145
sa(dp146
g62
S'/home/brat/web2py/gluon/dal.py'
p147
sg64
(dp148
S'self'
p149
S'<DAL uri="mysql:******@localhost/phase5">'
p150
sS'global ogetattr'
p151
S"<slot wrapper '__getattribute__' of 'object' objects>"
p152
sS'key'
p153
S"'product'"
p154
ssg70
I7987
sg71
(dp155
I7982
S'    def __getattr__(self, key):'
p156
sI7983
S"        if ogetattr(self,'_lazy_tables') and \\"
p157
sI7984
S"                key in ogetattr(self,'_LAZY_TABLES'):"
p158
sI7985
S'            tablename, fields, args = self._LAZY_TABLES.pop(key)'
p159
sI7986
S'            return self.lazy_define_table(tablename,*fields,**args)'
p160
sI7987
S'        return ogetattr(self, key)'
p161
sI7988
S''
sI7989
S'    def __setitem__(self, key, value):'
p162
sI7990
S'        osetattr(self, str(key), value)'
p163
sI7991
S''
ssg83
S'(self=<DAL uri="mysql:******@localhost/phase5">, key=\'product\')'
p164
sg85
S'__getattr__'
p165
sasS'pyver'
p166
S'Python 2.7.3: /usr/bin/python (prefix: /usr)'
p167
sS'session'
p168
g57
(S's\xbc\x01\x00\x00<div><table><tr><td style="font-weight:bold;vertical-align:top;">flash</td><td style="vertical-align:top;">:</td><td><div>None</div></td></tr><tr><td style="font-weight:bold;vertical-align:top;">last_orderby</td><td style="vertical-align:top;">:</td><td><div>None</div></td></tr><tr><td style="font-weight:bold;vertical-align:top;">last_query</td><td style="vertical-align:top;">:</td><td><div>db.auth_user.id&gt;0</div></td></tr></table></div>'
tRp169
sS'etype'
p170
S"<type 'exceptions.AttributeError'>"
p171
sS'date'
p172
S'Sun Oct 27 02:41:42 2013'
p173
sS'response'
p174
g57
(S'sH\x1a\x00\x00<div><table><tr><td style="font-weight:bold;vertical-align:top;">body</td><td style="vertical-align:top;">:</td><td><div>&lt;cStringIO.StringO object at 0xae6be3e0&gt;</div></td></tr><tr><td style="font-weight:bold;vertical-align:top;">cookies</td><td style="vertical-align:top;">:</td><td><div><table></table></div></td></tr><tr><td style="font-weight:bold;vertical-align:top;">delimiters</td><td style="vertical-align:top;">:</td><td><div><table><tr><td><div>{{</div></td></tr><tr><td><div>}}</div></td></tr></table></div></td></tr><tr><td style="font-weight:bold;vertical-align:top;">files</td><td style="vertical-align:top;">:</td><td><div><table></table></div></td></tr><tr><td style="font-weight:bold;vertical-align:top;">flash</td><td style="vertical-align:top;">:</td><td><div></div></td></tr><tr><td style="font-weight:bold;vertical-align:top;">generic_patterns</td><td style="vertical-align:top;">:</td><td><div><table><tr><td><div>*</div></td></tr></table></div></td></tr><tr><td style="font-weight:bold;vertical-align:top;">google_analytics_id</td><td style="vertical-align:top;">:</td><td><div>None</div></td></tr><tr><td style="font-weight:bold;vertical-align:top;">headers</td><td style="vertical-align:top;">:</td><td><div><table><tr><td style="font-weight:bold;vertical-align:top;">X-Powered-By</td><td style="vertical-align:top;">:</td><td><div>web2py</div></td></tr></table></div></td></tr><tr><td style="font-weight:bold;vertical-align:top;">logo</td><td style="vertical-align:top;">:</td><td><div><a class="brand" data-w2p_disable_with="default"><b><span>S</span>pencer<span>S</span></b>&trade;&nbsp;</a></div></td></tr><tr><td style="font-weight:bold;vertical-align:top;">menu</td><td style="vertical-align:top;">:</td><td><div><table><tr><td><div><table><tr><td><div>Home</div></td></tr><tr><td><div>False</div></td></tr><tr><td><div>/Spencers/default/index</div></td></tr><tr><td><div><table></table></div></td></tr></table></div></td></tr><tr><td><div><table><tr><td><div>Catalogue</div></td></tr><tr><td><div>False</div></td></tr><tr><td><div>/Spencers/default/view_products</div></td></tr><tr><td><div><table></table></div></td></tr></table></div></td></tr><tr><td><div><table><tr><td><div>Billing</div></td></tr><tr><td><div>False</div></td></tr><tr><td><div>/Spencers/default/bills</div></td></tr><tr><td><div><table></table></div></td></tr></table></div></td></tr><tr><td><div><table><tr><td><div>Customers</div></td></tr><tr><td><div>False</div></td></tr><tr><td><div>/Spencers/default/view_customers</div></td></tr><tr><td><div><table></table></div></td></tr></table></div></td></tr></table></div></td></tr><tr><td style="font-weight:bold;vertical-align:top;">meta</td><td style="vertical-align:top;">:</td><td><div><table><tr><td style="font-weight:bold;vertical-align:top;">author</td><td style="vertical-align:top;">:</td><td><div>Your Name &lt;you@example.com&gt;</div></td></tr><tr><td style="font-weight:bold;vertical-align:top;">description</td><td style="vertical-align:top;">:</td><td><div>a cool new app</div></td></tr><tr><td style="font-weight:bold;vertical-align:top;">generator</td><td style="vertical-align:top;">:</td><td><div>Web2py Web Framework</div></td></tr><tr><td style="font-weight:bold;vertical-align:top;">keywords</td><td style="vertical-align:top;">:</td><td><div>web2py, python, framework</div></td></tr></table></div></td></tr><tr><td style="font-weight:bold;vertical-align:top;">models_to_run</td><td style="vertical-align:top;">:</td><td><div><table><tr><td><div>^\\w+\\.py$</div></td></tr><tr><td><div>^default/\\w+\\.py$</div></td></tr><tr><td><div>^default/edit_product/\\w+\\.py$</div></td></tr></table></div></td></tr><tr><td style="font-weight:bold;vertical-align:top;">postprocessing</td><td style="vertical-align:top;">:</td><td><div><table></table></div></td></tr><tr><td style="font-weight:bold;vertical-align:top;">session_client</td><td style="vertical-align:top;">:</td><td><div>127.0.0.1</div></td></tr><tr><td style="font-weight:bold;vertical-align:top;">session_cookie_compression_level</td><td style="vertical-align:top;">:</td><td><div>None</div></td></tr><tr><td style="font-weight:bold;vertical-align:top;">session_cookie_expires</td><td style="vertical-align:top;">:</td><td><div>None</div></td></tr><tr><td style="font-weight:bold;vertical-align:top;">session_cookie_key</td><td style="vertical-align:top;">:</td><td><div>None</div></td></tr><tr><td style="font-weight:bold;vertical-align:top;">session_data_name</td><td style="vertical-align:top;">:</td><td><div>session_data_spencers</div></td></tr><tr><td style="font-weight:bold;vertical-align:top;">session_file</td><td style="vertical-align:top;">:</td><td><div>&lt;open file &#x27;/home/brat/web2py/applications/Spencers/sessions/127.0.0.1-786647c6-1db3-4d45-849b-48e34046e08d&#x27;, mode &#x27;rb+&#x27; at 0xae21f2e0&gt;</div></td></tr><tr><td style="font-weight:bold;vertical-align:top;">session_filename</td><td style="vertical-align:top;">:</td><td><div>/home/brat/web2py/applications/Spencers/sessions/127.0.0.1-786647c6-1db3-4d45-849b-48e34046e08d</div></td></tr><tr><td style="font-weight:bold;vertical-align:top;">session_hash</td><td style="vertical-align:top;">:</td><td><div>80eadf654e824d3218691aa7f5fb2554</div></td></tr><tr><td style="font-weight:bold;vertical-align:top;">session_id</td><td style="vertical-align:top;">:</td><td><div>127.0.0.1-786647c6-1db3-4d45-849b-48e34046e08d</div></td></tr><tr><td style="font-weight:bold;vertical-align:top;">session_id_name</td><td style="vertical-align:top;">:</td><td><div>session_id_spencers</div></td></tr><tr><td style="font-weight:bold;vertical-align:top;">session_locked</td><td style="vertical-align:top;">:</td><td><div>True</div></td></tr><tr><td style="font-weight:bold;vertical-align:top;">session_masterapp</td><td style="vertical-align:top;">:</td><td><div>Spencers</div></td></tr><tr><td style="font-weight:bold;vertical-align:top;">session_new</td><td style="vertical-align:top;">:</td><td><div>False</div></td></tr><tr><td style="font-weight:bold;vertical-align:top;">session_storage_type</td><td style="vertical-align:top;">:</td><td><div>file</div></td></tr><tr><td style="font-weight:bold;vertical-align:top;">status</td><td style="vertical-align:top;">:</td><td><div>200</div></td></tr><tr><td style="font-weight:bold;vertical-align:top;">subtitle</td><td style="vertical-align:top;">:</td><td><div></div></td></tr><tr><td style="font-weight:bold;vertical-align:top;">title</td><td style="vertical-align:top;">:</td><td><div>Spencers</div></td></tr><tr><td style="font-weight:bold;vertical-align:top;">view</td><td style="vertical-align:top;">:</td><td><div>default/edit_product.html</div></td></tr></table></div>'
tRp175
sS'locals'
p176
(dp177
S'self'
p178
S'<DAL uri="mysql:******@localhost/phase5">'
p179
sS'key'
p180
S"'product'"
p181
sssS'traceback'
p182
S'Traceback (most recent call last):\n  File "/home/brat/web2py/gluon/restricted.py", line 217, in restricted\n    exec ccode in environment\n  File "/home/brat/web2py/applications/Spencers/controllers/default.py", line 345, in <module>\n  File "/home/brat/web2py/gluon/globals.py", line 378, in <lambda>\n    self._caller = lambda f: f()\n  File "/home/brat/web2py/applications/Spencers/controllers/default.py", line 88, in edit_product\n    product = db.product(request.args(0)) or redirect(URL(\'view_products\'))\n  File "/home/brat/web2py/gluon/dal.py", line 7987, in __getattr__\n    return ogetattr(self, key)\nAttributeError: \'DAL\' object has no attribute \'product\'\n'
p183
s.